Archive member included to satisfy reference by file (symbol)

c:/program files (x86)/atollic/truestudio for stm32 9.2.0/armtools/bin/../lib/gcc/arm-atollic-eabi/6.3.1/../../../../arm-atollic-eabi/lib/armv7e-m/fpu/fpv5-d16\libc_nano.a(lib_a-errno.o)
                              Src\syscalls.o (__errno)
c:/program files (x86)/atollic/truestudio for stm32 9.2.0/armtools/bin/../lib/gcc/arm-atollic-eabi/6.3.1/../../../../arm-atollic-eabi/lib/armv7e-m/fpu/fpv5-d16\libc_nano.a(lib_a-impure.o)
                              c:/program files (x86)/atollic/truestudio for stm32 9.2.0/armtools/bin/../lib/gcc/arm-atollic-eabi/6.3.1/../../../../arm-atollic-eabi/lib/armv7e-m/fpu/fpv5-d16\libc_nano.a(lib_a-errno.o) (_impure_ptr)
c:/program files (x86)/atollic/truestudio for stm32 9.2.0/armtools/bin/../lib/gcc/arm-atollic-eabi/6.3.1/../../../../arm-atollic-eabi/lib/armv7e-m/fpu/fpv5-d16\libc_nano.a(lib_a-init.o)
                              startup\startup_stm32f767xx.o (__libc_init_array)
c:/program files (x86)/atollic/truestudio for stm32 9.2.0/armtools/bin/../lib/gcc/arm-atollic-eabi/6.3.1/../../../../arm-atollic-eabi/lib/armv7e-m/fpu/fpv5-d16\libc_nano.a(lib_a-memcpy-stub.o)
                              Src\sd_diskio.o (memcpy)
c:/program files (x86)/atollic/truestudio for stm32 9.2.0/armtools/bin/../lib/gcc/arm-atollic-eabi/6.3.1/../../../../arm-atollic-eabi/lib/armv7e-m/fpu/fpv5-d16\libc_nano.a(lib_a-memset.o)
                              Src\main.o (memset)
c:/program files (x86)/atollic/truestudio for stm32 9.2.0/armtools/bin/../lib/gcc/arm-atollic-eabi/6.3.1/../../../../arm-atollic-eabi/lib/armv7e-m/fpu/fpv5-d16\libc_nano.a(lib_a-sprintf.o)
                              Src\user\data_saver.o (sprintf)
c:/program files (x86)/atollic/truestudio for stm32 9.2.0/armtools/bin/../lib/gcc/arm-atollic-eabi/6.3.1/../../../../arm-atollic-eabi/lib/armv7e-m/fpu/fpv5-d16\libc_nano.a(lib_a-strcat.o)
                              Src\user\string_operations.o (strcat)
c:/program files (x86)/atollic/truestudio for stm32 9.2.0/armtools/bin/../lib/gcc/arm-atollic-eabi/6.3.1/../../../../arm-atollic-eabi/lib/armv7e-m/fpu/fpv5-d16\libc_nano.a(lib_a-strlen.o)
                              Src\user\file_system_wrapper.o (strlen)
c:/program files (x86)/atollic/truestudio for stm32 9.2.0/armtools/bin/../lib/gcc/arm-atollic-eabi/6.3.1/../../../../arm-atollic-eabi/lib/armv7e-m/fpu/fpv5-d16\libc_nano.a(lib_a-nano-svfprintf.o)
                              c:/program files (x86)/atollic/truestudio for stm32 9.2.0/armtools/bin/../lib/gcc/arm-atollic-eabi/6.3.1/../../../../arm-atollic-eabi/lib/armv7e-m/fpu/fpv5-d16\libc_nano.a(lib_a-sprintf.o) (_svfprintf_r)
c:/program files (x86)/atollic/truestudio for stm32 9.2.0/armtools/bin/../lib/gcc/arm-atollic-eabi/6.3.1/../../../../arm-atollic-eabi/lib/armv7e-m/fpu/fpv5-d16\libc_nano.a(lib_a-nano-vfprintf_i.o)
                              c:/program files (x86)/atollic/truestudio for stm32 9.2.0/armtools/bin/../lib/gcc/arm-atollic-eabi/6.3.1/../../../../arm-atollic-eabi/lib/armv7e-m/fpu/fpv5-d16\libc_nano.a(lib_a-nano-svfprintf.o) (_printf_i)
c:/program files (x86)/atollic/truestudio for stm32 9.2.0/armtools/bin/../lib/gcc/arm-atollic-eabi/6.3.1/../../../../arm-atollic-eabi/lib/armv7e-m/fpu/fpv5-d16\libc_nano.a(lib_a-memchr.o)
                              c:/program files (x86)/atollic/truestudio for stm32 9.2.0/armtools/bin/../lib/gcc/arm-atollic-eabi/6.3.1/../../../../arm-atollic-eabi/lib/armv7e-m/fpu/fpv5-d16\libc_nano.a(lib_a-nano-svfprintf.o) (memchr)
c:/program files (x86)/atollic/truestudio for stm32 9.2.0/armtools/bin/../lib/gcc/arm-atollic-eabi/6.3.1/../../../../arm-atollic-eabi/lib/armv7e-m/fpu/fpv5-d16\libc_nano.a(lib_a-memmove.o)
                              c:/program files (x86)/atollic/truestudio for stm32 9.2.0/armtools/bin/../lib/gcc/arm-atollic-eabi/6.3.1/../../../../arm-atollic-eabi/lib/armv7e-m/fpu/fpv5-d16\libc_nano.a(lib_a-nano-svfprintf.o) (memmove)
c:/program files (x86)/atollic/truestudio for stm32 9.2.0/armtools/bin/../lib/gcc/arm-atollic-eabi/6.3.1/../../../../arm-atollic-eabi/lib/armv7e-m/fpu/fpv5-d16\libc_nano.a(lib_a-nano-freer.o)
                              c:/program files (x86)/atollic/truestudio for stm32 9.2.0/armtools/bin/../lib/gcc/arm-atollic-eabi/6.3.1/../../../../arm-atollic-eabi/lib/armv7e-m/fpu/fpv5-d16\libc_nano.a(lib_a-nano-svfprintf.o) (_free_r)
c:/program files (x86)/atollic/truestudio for stm32 9.2.0/armtools/bin/../lib/gcc/arm-atollic-eabi/6.3.1/../../../../arm-atollic-eabi/lib/armv7e-m/fpu/fpv5-d16\libc_nano.a(lib_a-nano-mallocr.o)
                              c:/program files (x86)/atollic/truestudio for stm32 9.2.0/armtools/bin/../lib/gcc/arm-atollic-eabi/6.3.1/../../../../arm-atollic-eabi/lib/armv7e-m/fpu/fpv5-d16\libc_nano.a(lib_a-nano-svfprintf.o) (_malloc_r)
c:/program files (x86)/atollic/truestudio for stm32 9.2.0/armtools/bin/../lib/gcc/arm-atollic-eabi/6.3.1/../../../../arm-atollic-eabi/lib/armv7e-m/fpu/fpv5-d16\libc_nano.a(lib_a-nano-reallocr.o)
                              c:/program files (x86)/atollic/truestudio for stm32 9.2.0/armtools/bin/../lib/gcc/arm-atollic-eabi/6.3.1/../../../../arm-atollic-eabi/lib/armv7e-m/fpu/fpv5-d16\libc_nano.a(lib_a-nano-svfprintf.o) (_realloc_r)
c:/program files (x86)/atollic/truestudio for stm32 9.2.0/armtools/bin/../lib/gcc/arm-atollic-eabi/6.3.1/../../../../arm-atollic-eabi/lib/armv7e-m/fpu/fpv5-d16\libc_nano.a(lib_a-sbrkr.o)
                              c:/program files (x86)/atollic/truestudio for stm32 9.2.0/armtools/bin/../lib/gcc/arm-atollic-eabi/6.3.1/../../../../arm-atollic-eabi/lib/armv7e-m/fpu/fpv5-d16\libc_nano.a(lib_a-nano-mallocr.o) (_sbrk_r)
c:/program files (x86)/atollic/truestudio for stm32 9.2.0/armtools/bin/../lib/gcc/arm-atollic-eabi/6.3.1/../../../../arm-atollic-eabi/lib/armv7e-m/fpu/fpv5-d16\libc_nano.a(lib_a-mlock.o)
                              c:/program files (x86)/atollic/truestudio for stm32 9.2.0/armtools/bin/../lib/gcc/arm-atollic-eabi/6.3.1/../../../../arm-atollic-eabi/lib/armv7e-m/fpu/fpv5-d16\libc_nano.a(lib_a-nano-freer.o) (__malloc_lock)
c:/program files (x86)/atollic/truestudio for stm32 9.2.0/armtools/bin/../lib/gcc/arm-atollic-eabi/6.3.1/../../../../arm-atollic-eabi/lib/armv7e-m/fpu/fpv5-d16\libc_nano.a(lib_a-nano-msizer.o)
                              c:/program files (x86)/atollic/truestudio for stm32 9.2.0/armtools/bin/../lib/gcc/arm-atollic-eabi/6.3.1/../../../../arm-atollic-eabi/lib/armv7e-m/fpu/fpv5-d16\libc_nano.a(lib_a-nano-reallocr.o) (_malloc_usable_size_r)
c:/program files (x86)/atollic/truestudio for stm32 9.2.0/armtools/bin/../lib/gcc/arm-atollic-eabi/6.3.1/../../../../arm-atollic-eabi/lib/armv7e-m/fpu/fpv5-d16\libc_nano.a(lib_a-reent.o)
                              c:/program files (x86)/atollic/truestudio for stm32 9.2.0/armtools/bin/../lib/gcc/arm-atollic-eabi/6.3.1/../../../../arm-atollic-eabi/lib/armv7e-m/fpu/fpv5-d16\libc_nano.a(lib_a-sbrkr.o) (errno)
c:/program files (x86)/atollic/truestudio for stm32 9.2.0/armtools/bin/../lib/gcc/arm-atollic-eabi/6.3.1/armv7e-m/fpu/fpv5-d16\libgcc.a(_aeabi_uldivmod.o)
                              Drivers\STM32F7xx_HAL_Driver\Src\stm32f7xx_hal_rcc.o (__aeabi_uldivmod)
c:/program files (x86)/atollic/truestudio for stm32 9.2.0/armtools/bin/../lib/gcc/arm-atollic-eabi/6.3.1/armv7e-m/fpu/fpv5-d16\libgcc.a(_udivmoddi4.o)
                              c:/program files (x86)/atollic/truestudio for stm32 9.2.0/armtools/bin/../lib/gcc/arm-atollic-eabi/6.3.1/armv7e-m/fpu/fpv5-d16\libgcc.a(_aeabi_uldivmod.o) (__udivmoddi4)
c:/program files (x86)/atollic/truestudio for stm32 9.2.0/armtools/bin/../lib/gcc/arm-atollic-eabi/6.3.1/armv7e-m/fpu/fpv5-d16\libgcc.a(_dvmd_tls.o)
                              c:/program files (x86)/atollic/truestudio for stm32 9.2.0/armtools/bin/../lib/gcc/arm-atollic-eabi/6.3.1/armv7e-m/fpu/fpv5-d16\libgcc.a(_aeabi_uldivmod.o) (__aeabi_ldiv0)

Allocating common symbols
Common symbol       size              file

retSD               0x1               Src\fatfs.o
configDataManager   0xa3a4            Src\main.o
uartGpsUBXReceiverTerm
                    0x10a8            Src\main.o
errno               0x4               c:/program files (x86)/atollic/truestudio for stm32 9.2.0/armtools/bin/../lib/gcc/arm-atollic-eabi/6.3.1/../../../../arm-atollic-eabi/lib/armv7e-m/fpu/fpv5-d16\libc_nano.a(lib_a-reent.o)
uartGpsDriver       0x3c              Src\main.o
gpsResetDriver      0x10              Src\main.o
hsd1                0x84              Src\sdmmc.o
uartGpsNMEAReceiverTerm
                    0x10a0            Src\main.o
ledDebug1Driver     0x18              Src\main.o
uwTick              0x4               Drivers\STM32F7xx_HAL_Driver\Src\stm32f7xx_hal.o
gpsDriver           0x7c              Src\main.o
pFlash              0x1c              Drivers\STM32F7xx_HAL_Driver\Src\stm32f7xx_hal_flash.o
canReceiver         0x201c            Src\main.o
hdma_usart1_tx      0x60              Src\usart.o
ledDebug2Driver     0x18              Src\main.o
canTransceiverDriver
                    0x34              Src\main.o
rtcDriver           0x8               Src\main.o
huart1              0x80              Src\usart.o
SDPath              0x4               Src\fatfs.o
hrtc                0x20              Src\rtc.o
actionScheduler     0x20              Src\main.o
hdma_sdmmc1_rx      0x60              Src\sdmmc.o
dataSaver           0x150             Src\main.o
SDFile              0x30              Src\fatfs.o
hcan1               0x28              Src\can.o
fileSystem          0x238             Src\main.o
hdma_sdmmc1_tx      0x60              Src\sdmmc.o
msTimerDriver       0xc               Src\main.o
SDFatFS             0x234             Src\fatfs.o

Discarded input sections

 .text          0x00000000        0x0 c:/program files (x86)/atollic/truestudio for stm32 9.2.0/armtools/bin/../lib/gcc/arm-atollic-eabi/6.3.1/armv7e-m/fpu/fpv5-d16/crti.o
 .data          0x00000000        0x0 c:/program files (x86)/atollic/truestudio for stm32 9.2.0/armtools/bin/../lib/gcc/arm-atollic-eabi/6.3.1/armv7e-m/fpu/fpv5-d16/crti.o
 .bss           0x00000000        0x0 c:/program files (x86)/atollic/truestudio for stm32 9.2.0/armtools/bin/../lib/gcc/arm-atollic-eabi/6.3.1/armv7e-m/fpu/fpv5-d16/crti.o
 .data          0x00000000        0x4 c:/program files (x86)/atollic/truestudio for stm32 9.2.0/armtools/bin/../lib/gcc/arm-atollic-eabi/6.3.1/armv7e-m/fpu/fpv5-d16/crtbegin.o
 .text          0x00000000        0x0 Drivers\STM32F7xx_HAL_Driver\Src\stm32f7xx_hal.o
 .data          0x00000000        0x0 Drivers\STM32F7xx_HAL_Driver\Src\stm32f7xx_hal.o
 .bss           0x00000000        0x0 Drivers\STM32F7xx_HAL_Driver\Src\stm32f7xx_hal.o
 .text.HAL_DeInit
                0x00000000       0x58 Drivers\STM32F7xx_HAL_Driver\Src\stm32f7xx_hal.o
 .text.HAL_MspInit
                0x00000000        0xe Drivers\STM32F7xx_HAL_Driver\Src\stm32f7xx_hal.o
 .text.HAL_MspDeInit
                0x00000000        0xe Drivers\STM32F7xx_HAL_Driver\Src\stm32f7xx_hal.o
 .text.HAL_GetTickPrio
                0x00000000       0x18 Drivers\STM32F7xx_HAL_Driver\Src\stm32f7xx_hal.o
 .text.HAL_SetTickFreq
                0x00000000       0x40 Drivers\STM32F7xx_HAL_Driver\Src\stm32f7xx_hal.o
 .text.HAL_GetTickFreq
                0x00000000       0x18 Drivers\STM32F7xx_HAL_Driver\Src\stm32f7xx_hal.o
 .text.HAL_SuspendTick
                0x00000000       0x20 Drivers\STM32F7xx_HAL_Driver\Src\stm32f7xx_hal.o
 .text.HAL_ResumeTick
                0x00000000       0x20 Drivers\STM32F7xx_HAL_Driver\Src\stm32f7xx_hal.o
 .text.HAL_GetHalVersion
                0x00000000       0x14 Drivers\STM32F7xx_HAL_Driver\Src\stm32f7xx_hal.o
 .text.HAL_GetREVID
                0x00000000       0x18 Drivers\STM32F7xx_HAL_Driver\Src\stm32f7xx_hal.o
 .text.HAL_GetDEVID
                0x00000000       0x1c Drivers\STM32F7xx_HAL_Driver\Src\stm32f7xx_hal.o
 .text.HAL_GetUIDw0
                0x00000000       0x18 Drivers\STM32F7xx_HAL_Driver\Src\stm32f7xx_hal.o
 .text.HAL_GetUIDw1
                0x00000000       0x18 Drivers\STM32F7xx_HAL_Driver\Src\stm32f7xx_hal.o
 .text.HAL_GetUIDw2
                0x00000000       0x18 Drivers\STM32F7xx_HAL_Driver\Src\stm32f7xx_hal.o
 .text.HAL_DBGMCU_EnableDBGSleepMode
                0x00000000       0x20 Drivers\STM32F7xx_HAL_Driver\Src\stm32f7xx_hal.o
 .text.HAL_DBGMCU_DisableDBGSleepMode
                0x00000000       0x20 Drivers\STM32F7xx_HAL_Driver\Src\stm32f7xx_hal.o
 .text.HAL_DBGMCU_EnableDBGStopMode
                0x00000000       0x20 Drivers\STM32F7xx_HAL_Driver\Src\stm32f7xx_hal.o
 .text.HAL_DBGMCU_DisableDBGStopMode
                0x00000000       0x20 Drivers\STM32F7xx_HAL_Driver\Src\stm32f7xx_hal.o
 .text.HAL_DBGMCU_EnableDBGStandbyMode
                0x00000000       0x20 Drivers\STM32F7xx_HAL_Driver\Src\stm32f7xx_hal.o
 .text.HAL_DBGMCU_DisableDBGStandbyMode
                0x00000000       0x20 Drivers\STM32F7xx_HAL_Driver\Src\stm32f7xx_hal.o
 .text.HAL_EnableCompensationCell
                0x00000000       0x20 Drivers\STM32F7xx_HAL_Driver\Src\stm32f7xx_hal.o
 .text.HAL_DisableCompensationCell
                0x00000000       0x20 Drivers\STM32F7xx_HAL_Driver\Src\stm32f7xx_hal.o
 .text.HAL_EnableFMCMemorySwapping
                0x00000000       0x20 Drivers\STM32F7xx_HAL_Driver\Src\stm32f7xx_hal.o
 .text.HAL_DisableFMCMemorySwapping
                0x00000000       0x20 Drivers\STM32F7xx_HAL_Driver\Src\stm32f7xx_hal.o
 .text.HAL_EnableMemorySwappingBank
                0x00000000       0x20 Drivers\STM32F7xx_HAL_Driver\Src\stm32f7xx_hal.o
 .text.HAL_DisableMemorySwappingBank
                0x00000000       0x20 Drivers\STM32F7xx_HAL_Driver\Src\stm32f7xx_hal.o
 .text          0x00000000        0x0 Drivers\STM32F7xx_HAL_Driver\Src\stm32f7xx_hal_can.o
 .data          0x00000000        0x0 Drivers\STM32F7xx_HAL_Driver\Src\stm32f7xx_hal_can.o
 .bss           0x00000000        0x0 Drivers\STM32F7xx_HAL_Driver\Src\stm32f7xx_hal_can.o
 .text.HAL_CAN_DeInit
                0x00000000       0x46 Drivers\STM32F7xx_HAL_Driver\Src\stm32f7xx_hal_can.o
 .text.HAL_CAN_MspInit
                0x00000000       0x14 Drivers\STM32F7xx_HAL_Driver\Src\stm32f7xx_hal_can.o
 .text.HAL_CAN_MspDeInit
                0x00000000       0x14 Drivers\STM32F7xx_HAL_Driver\Src\stm32f7xx_hal_can.o
 .text.HAL_CAN_Stop
                0x00000000       0x92 Drivers\STM32F7xx_HAL_Driver\Src\stm32f7xx_hal_can.o
 .text.HAL_CAN_RequestSleep
                0x00000000       0x4a Drivers\STM32F7xx_HAL_Driver\Src\stm32f7xx_hal_can.o
 .text.HAL_CAN_WakeUp
                0x00000000       0x84 Drivers\STM32F7xx_HAL_Driver\Src\stm32f7xx_hal_can.o
 .text.HAL_CAN_IsSleepActive
                0x00000000       0x40 Drivers\STM32F7xx_HAL_Driver\Src\stm32f7xx_hal_can.o
 .text.HAL_CAN_AddTxMessage
                0x00000000      0x1ae Drivers\STM32F7xx_HAL_Driver\Src\stm32f7xx_hal_can.o
 .text.HAL_CAN_AbortTxRequest
                0x00000000       0x8a Drivers\STM32F7xx_HAL_Driver\Src\stm32f7xx_hal_can.o
 .text.HAL_CAN_GetTxMailboxesFreeLevel
                0x00000000       0x6a Drivers\STM32F7xx_HAL_Driver\Src\stm32f7xx_hal_can.o
 .text.HAL_CAN_IsTxMessagePending
                0x00000000       0x48 Drivers\STM32F7xx_HAL_Driver\Src\stm32f7xx_hal_can.o
 .text.HAL_CAN_GetTxTimestamp
                0x00000000       0x5c Drivers\STM32F7xx_HAL_Driver\Src\stm32f7xx_hal_can.o
 .text.HAL_CAN_GetRxFifoFillLevel
                0x00000000       0x50 Drivers\STM32F7xx_HAL_Driver\Src\stm32f7xx_hal_can.o
 .text.HAL_CAN_DeactivateNotification
                0x00000000       0x4e Drivers\STM32F7xx_HAL_Driver\Src\stm32f7xx_hal_can.o
 .text.HAL_CAN_RxFifo0MsgPendingCallback
                0x00000000       0x14 Drivers\STM32F7xx_HAL_Driver\Src\stm32f7xx_hal_can.o
 .text.HAL_CAN_RxFifo1MsgPendingCallback
                0x00000000       0x14 Drivers\STM32F7xx_HAL_Driver\Src\stm32f7xx_hal_can.o
 .text.HAL_CAN_ErrorCallback
                0x00000000       0x14 Drivers\STM32F7xx_HAL_Driver\Src\stm32f7xx_hal_can.o
 .text.HAL_CAN_GetState
                0x00000000       0x50 Drivers\STM32F7xx_HAL_Driver\Src\stm32f7xx_hal_can.o
 .text          0x00000000        0x0 Drivers\STM32F7xx_HAL_Driver\Src\stm32f7xx_hal_cortex.o
 .data          0x00000000        0x0 Drivers\STM32F7xx_HAL_Driver\Src\stm32f7xx_hal_cortex.o
 .bss           0x00000000        0x0 Drivers\STM32F7xx_HAL_Driver\Src\stm32f7xx_hal_cortex.o
 .text.__NVIC_DisableIRQ
                0x00000000       0x44 Drivers\STM32F7xx_HAL_Driver\Src\stm32f7xx_hal_cortex.o
 .text.__NVIC_GetPendingIRQ
                0x00000000       0x44 Drivers\STM32F7xx_HAL_Driver\Src\stm32f7xx_hal_cortex.o
 .text.__NVIC_SetPendingIRQ
                0x00000000       0x3c Drivers\STM32F7xx_HAL_Driver\Src\stm32f7xx_hal_cortex.o
 .text.__NVIC_ClearPendingIRQ
                0x00000000       0x3c Drivers\STM32F7xx_HAL_Driver\Src\stm32f7xx_hal_cortex.o
 .text.__NVIC_GetActive
                0x00000000       0x44 Drivers\STM32F7xx_HAL_Driver\Src\stm32f7xx_hal_cortex.o
 .text.__NVIC_GetPriority
                0x00000000       0x50 Drivers\STM32F7xx_HAL_Driver\Src\stm32f7xx_hal_cortex.o
 .text.NVIC_DecodePriority
                0x00000000       0x6a Drivers\STM32F7xx_HAL_Driver\Src\stm32f7xx_hal_cortex.o
 .text.__NVIC_SystemReset
                0x00000000       0x28 Drivers\STM32F7xx_HAL_Driver\Src\stm32f7xx_hal_cortex.o
 .text.HAL_NVIC_DisableIRQ
                0x00000000       0x1c Drivers\STM32F7xx_HAL_Driver\Src\stm32f7xx_hal_cortex.o
 .text.HAL_NVIC_SystemReset
                0x00000000        0x8 Drivers\STM32F7xx_HAL_Driver\Src\stm32f7xx_hal_cortex.o
 .text.HAL_MPU_Disable
                0x00000000       0x2c Drivers\STM32F7xx_HAL_Driver\Src\stm32f7xx_hal_cortex.o
 .text.HAL_MPU_Enable
                0x00000000       0x3c Drivers\STM32F7xx_HAL_Driver\Src\stm32f7xx_hal_cortex.o
 .text.HAL_MPU_ConfigRegion
                0x00000000       0x88 Drivers\STM32F7xx_HAL_Driver\Src\stm32f7xx_hal_cortex.o
 .text.HAL_NVIC_GetPriorityGrouping
                0x00000000        0xe Drivers\STM32F7xx_HAL_Driver\Src\stm32f7xx_hal_cortex.o
 .text.HAL_NVIC_GetPriority
                0x00000000       0x2c Drivers\STM32F7xx_HAL_Driver\Src\stm32f7xx_hal_cortex.o
 .text.HAL_NVIC_SetPendingIRQ
                0x00000000       0x1c Drivers\STM32F7xx_HAL_Driver\Src\stm32f7xx_hal_cortex.o
 .text.HAL_NVIC_GetPendingIRQ
                0x00000000       0x1e Drivers\STM32F7xx_HAL_Driver\Src\stm32f7xx_hal_cortex.o
 .text.HAL_NVIC_ClearPendingIRQ
                0x00000000       0x1c Drivers\STM32F7xx_HAL_Driver\Src\stm32f7xx_hal_cortex.o
 .text.HAL_NVIC_GetActive
                0x00000000       0x1e Drivers\STM32F7xx_HAL_Driver\Src\stm32f7xx_hal_cortex.o
 .text.HAL_SYSTICK_CLKSourceConfig
                0x00000000       0x38 Drivers\STM32F7xx_HAL_Driver\Src\stm32f7xx_hal_cortex.o
 .text.HAL_SYSTICK_Callback
                0x00000000        0xe Drivers\STM32F7xx_HAL_Driver\Src\stm32f7xx_hal_cortex.o
 .text          0x00000000        0x0 Drivers\STM32F7xx_HAL_Driver\Src\stm32f7xx_hal_dma.o
 .data          0x00000000        0x0 Drivers\STM32F7xx_HAL_Driver\Src\stm32f7xx_hal_dma.o
 .bss           0x00000000        0x0 Drivers\STM32F7xx_HAL_Driver\Src\stm32f7xx_hal_dma.o
 .text.HAL_DMA_DeInit
                0x00000000       0xbc Drivers\STM32F7xx_HAL_Driver\Src\stm32f7xx_hal_dma.o
 .text.HAL_DMA_Start
                0x00000000       0x76 Drivers\STM32F7xx_HAL_Driver\Src\stm32f7xx_hal_dma.o
 .text.HAL_DMA_Abort
                0x00000000       0xe0 Drivers\STM32F7xx_HAL_Driver\Src\stm32f7xx_hal_dma.o
 .text.HAL_DMA_PollForTransfer
                0x00000000      0x1be Drivers\STM32F7xx_HAL_Driver\Src\stm32f7xx_hal_dma.o
 .text.HAL_DMA_RegisterCallback
                0x00000000       0xa8 Drivers\STM32F7xx_HAL_Driver\Src\stm32f7xx_hal_dma.o
 .text.HAL_DMA_UnRegisterCallback
                0x00000000       0xd4 Drivers\STM32F7xx_HAL_Driver\Src\stm32f7xx_hal_dma.o
 .text.HAL_DMA_GetState
                0x00000000       0x1c Drivers\STM32F7xx_HAL_Driver\Src\stm32f7xx_hal_dma.o
 .text          0x00000000        0x0 Drivers\STM32F7xx_HAL_Driver\Src\stm32f7xx_hal_dma_ex.o
 .data          0x00000000        0x0 Drivers\STM32F7xx_HAL_Driver\Src\stm32f7xx_hal_dma_ex.o
 .bss           0x00000000        0x0 Drivers\STM32F7xx_HAL_Driver\Src\stm32f7xx_hal_dma_ex.o
 .text.HAL_DMAEx_MultiBufferStart
                0x00000000       0x96 Drivers\STM32F7xx_HAL_Driver\Src\stm32f7xx_hal_dma_ex.o
 .text.HAL_DMAEx_MultiBufferStart_IT
                0x00000000     0x1454 Drivers\STM32F7xx_HAL_Driver\Src\stm32f7xx_hal_dma_ex.o
 .text.HAL_DMAEx_ChangeMemory
                0x00000000       0x34 Drivers\STM32F7xx_HAL_Driver\Src\stm32f7xx_hal_dma_ex.o
 .text.DMA_MultiBufferSetConfig
                0x00000000       0x4c Drivers\STM32F7xx_HAL_Driver\Src\stm32f7xx_hal_dma_ex.o
 .debug_info    0x00000000      0x5d1 Drivers\STM32F7xx_HAL_Driver\Src\stm32f7xx_hal_dma_ex.o
 .debug_abbrev  0x00000000      0x1ab Drivers\STM32F7xx_HAL_Driver\Src\stm32f7xx_hal_dma_ex.o
 .debug_aranges
                0x00000000       0x38 Drivers\STM32F7xx_HAL_Driver\Src\stm32f7xx_hal_dma_ex.o
 .debug_ranges  0x00000000       0x28 Drivers\STM32F7xx_HAL_Driver\Src\stm32f7xx_hal_dma_ex.o
 .debug_line    0x00000000      0xdc9 Drivers\STM32F7xx_HAL_Driver\Src\stm32f7xx_hal_dma_ex.o
 .debug_str     0x00000000      0x656 Drivers\STM32F7xx_HAL_Driver\Src\stm32f7xx_hal_dma_ex.o
 .comment       0x00000000       0x7d Drivers\STM32F7xx_HAL_Driver\Src\stm32f7xx_hal_dma_ex.o
 .debug_frame   0x00000000       0xac Drivers\STM32F7xx_HAL_Driver\Src\stm32f7xx_hal_dma_ex.o
 .ARM.attributes
                0x00000000       0x37 Drivers\STM32F7xx_HAL_Driver\Src\stm32f7xx_hal_dma_ex.o
 .text          0x00000000        0x0 Drivers\STM32F7xx_HAL_Driver\Src\stm32f7xx_hal_exti.o
 .data          0x00000000        0x0 Drivers\STM32F7xx_HAL_Driver\Src\stm32f7xx_hal_exti.o
 .bss           0x00000000        0x0 Drivers\STM32F7xx_HAL_Driver\Src\stm32f7xx_hal_exti.o
 .text.HAL_EXTI_SetConfigLine
                0x00000000       0xd4 Drivers\STM32F7xx_HAL_Driver\Src\stm32f7xx_hal_exti.o
 .text.HAL_EXTI_GetConfigLine
                0x00000000       0xc4 Drivers\STM32F7xx_HAL_Driver\Src\stm32f7xx_hal_exti.o
 .text.HAL_EXTI_ClearConfigLine
                0x00000000       0x64 Drivers\STM32F7xx_HAL_Driver\Src\stm32f7xx_hal_exti.o
 .text.HAL_EXTI_RegisterCallback
                0x00000000       0x34 Drivers\STM32F7xx_HAL_Driver\Src\stm32f7xx_hal_exti.o
 .text.HAL_EXTI_GetHandle
                0x00000000       0x28 Drivers\STM32F7xx_HAL_Driver\Src\stm32f7xx_hal_exti.o
 .text.HAL_EXTI_IRQHandler
                0x00000000       0x40 Drivers\STM32F7xx_HAL_Driver\Src\stm32f7xx_hal_exti.o
 .text.HAL_EXTI_GetPending
                0x00000000       0x44 Drivers\STM32F7xx_HAL_Driver\Src\stm32f7xx_hal_exti.o
 .text.HAL_EXTI_ClearPending
                0x00000000       0x24 Drivers\STM32F7xx_HAL_Driver\Src\stm32f7xx_hal_exti.o
 .text.HAL_EXTI_GenerateSWI
                0x00000000       0x20 Drivers\STM32F7xx_HAL_Driver\Src\stm32f7xx_hal_exti.o
 .debug_info    0x00000000      0x528 Drivers\STM32F7xx_HAL_Driver\Src\stm32f7xx_hal_exti.o
 .debug_abbrev  0x00000000      0x1f2 Drivers\STM32F7xx_HAL_Driver\Src\stm32f7xx_hal_exti.o
 .debug_aranges
                0x00000000       0x60 Drivers\STM32F7xx_HAL_Driver\Src\stm32f7xx_hal_exti.o
 .debug_ranges  0x00000000       0x50 Drivers\STM32F7xx_HAL_Driver\Src\stm32f7xx_hal_exti.o
 .debug_line    0x00000000      0x326 Drivers\STM32F7xx_HAL_Driver\Src\stm32f7xx_hal_exti.o
 .debug_str     0x00000000      0x4f2 Drivers\STM32F7xx_HAL_Driver\Src\stm32f7xx_hal_exti.o
 .comment       0x00000000       0x7d Drivers\STM32F7xx_HAL_Driver\Src\stm32f7xx_hal_exti.o
 .debug_frame   0x00000000      0x174 Drivers\STM32F7xx_HAL_Driver\Src\stm32f7xx_hal_exti.o
 .ARM.attributes
                0x00000000       0x37 Drivers\STM32F7xx_HAL_Driver\Src\stm32f7xx_hal_exti.o
 .text          0x00000000        0x0 Drivers\STM32F7xx_HAL_Driver\Src\stm32f7xx_hal_flash.o
 .data          0x00000000        0x0 Drivers\STM32F7xx_HAL_Driver\Src\stm32f7xx_hal_flash.o
 .bss           0x00000000        0x0 Drivers\STM32F7xx_HAL_Driver\Src\stm32f7xx_hal_flash.o
 .text.HAL_FLASH_Program
                0x00000000       0xb8 Drivers\STM32F7xx_HAL_Driver\Src\stm32f7xx_hal_flash.o
 .text.HAL_FLASH_Program_IT
                0x00000000       0xb0 Drivers\STM32F7xx_HAL_Driver\Src\stm32f7xx_hal_flash.o
 .text.HAL_FLASH_IRQHandler
                0x00000000      0x160 Drivers\STM32F7xx_HAL_Driver\Src\stm32f7xx_hal_flash.o
 .text.HAL_FLASH_EndOfOperationCallback
                0x00000000       0x14 Drivers\STM32F7xx_HAL_Driver\Src\stm32f7xx_hal_flash.o
 .text.HAL_FLASH_OperationErrorCallback
                0x00000000       0x14 Drivers\STM32F7xx_HAL_Driver\Src\stm32f7xx_hal_flash.o
 .text.HAL_FLASH_Unlock
                0x00000000       0x44 Drivers\STM32F7xx_HAL_Driver\Src\stm32f7xx_hal_flash.o
 .text.HAL_FLASH_Lock
                0x00000000       0x20 Drivers\STM32F7xx_HAL_Driver\Src\stm32f7xx_hal_flash.o
 .text.HAL_FLASH_OB_Unlock
                0x00000000       0x38 Drivers\STM32F7xx_HAL_Driver\Src\stm32f7xx_hal_flash.o
 .text.HAL_FLASH_OB_Lock
                0x00000000       0x20 Drivers\STM32F7xx_HAL_Driver\Src\stm32f7xx_hal_flash.o
 .text.HAL_FLASH_OB_Launch
                0x00000000       0x24 Drivers\STM32F7xx_HAL_Driver\Src\stm32f7xx_hal_flash.o
 .text.HAL_FLASH_GetError
                0x00000000       0x18 Drivers\STM32F7xx_HAL_Driver\Src\stm32f7xx_hal_flash.o
 .text.FLASH_WaitForLastOperation
                0x00000000       0x80 Drivers\STM32F7xx_HAL_Driver\Src\stm32f7xx_hal_flash.o
 .text.FLASH_Program_DoubleWord
                0x00000000       0x5c Drivers\STM32F7xx_HAL_Driver\Src\stm32f7xx_hal_flash.o
 .text.FLASH_Program_Word
                0x00000000       0x48 Drivers\STM32F7xx_HAL_Driver\Src\stm32f7xx_hal_flash.o
 .text.FLASH_Program_HalfWord
                0x00000000       0x4c Drivers\STM32F7xx_HAL_Driver\Src\stm32f7xx_hal_flash.o
 .text.FLASH_Program_Byte
                0x00000000       0x48 Drivers\STM32F7xx_HAL_Driver\Src\stm32f7xx_hal_flash.o
 .text.FLASH_SetErrorCode
                0x00000000       0x94 Drivers\STM32F7xx_HAL_Driver\Src\stm32f7xx_hal_flash.o
 .debug_info    0x00000000      0x644 Drivers\STM32F7xx_HAL_Driver\Src\stm32f7xx_hal_flash.o
 .debug_abbrev  0x00000000      0x243 Drivers\STM32F7xx_HAL_Driver\Src\stm32f7xx_hal_flash.o
 .debug_aranges
                0x00000000       0xa0 Drivers\STM32F7xx_HAL_Driver\Src\stm32f7xx_hal_flash.o
 .debug_ranges  0x00000000       0x90 Drivers\STM32F7xx_HAL_Driver\Src\stm32f7xx_hal_flash.o
 .debug_line    0x00000000      0x469 Drivers\STM32F7xx_HAL_Driver\Src\stm32f7xx_hal_flash.o
 .debug_str     0x00000000      0x609 Drivers\STM32F7xx_HAL_Driver\Src\stm32f7xx_hal_flash.o
 .comment       0x00000000       0x7d Drivers\STM32F7xx_HAL_Driver\Src\stm32f7xx_hal_flash.o
 .debug_frame   0x00000000      0x27c Drivers\STM32F7xx_HAL_Driver\Src\stm32f7xx_hal_flash.o
 .ARM.attributes
                0x00000000       0x37 Drivers\STM32F7xx_HAL_Driver\Src\stm32f7xx_hal_flash.o
 COMMON         0x00000000       0x1c Drivers\STM32F7xx_HAL_Driver\Src\stm32f7xx_hal_flash.o
 .text          0x00000000        0x0 Drivers\STM32F7xx_HAL_Driver\Src\stm32f7xx_hal_flash_ex.o
 .data          0x00000000        0x0 Drivers\STM32F7xx_HAL_Driver\Src\stm32f7xx_hal_flash_ex.o
 .bss           0x00000000        0x0 Drivers\STM32F7xx_HAL_Driver\Src\stm32f7xx_hal_flash_ex.o
 .text.HAL_FLASHEx_Erase
                0x00000000       0xe0 Drivers\STM32F7xx_HAL_Driver\Src\stm32f7xx_hal_flash_ex.o
 .text.HAL_FLASHEx_Erase_IT
                0x00000000       0xa4 Drivers\STM32F7xx_HAL_Driver\Src\stm32f7xx_hal_flash_ex.o
 .text.HAL_FLASHEx_OBProgram
                0x00000000      0x138 Drivers\STM32F7xx_HAL_Driver\Src\stm32f7xx_hal_flash_ex.o
 .text.HAL_FLASHEx_OBGetConfig
                0x00000000       0x58 Drivers\STM32F7xx_HAL_Driver\Src\stm32f7xx_hal_flash_ex.o
 .text.FLASH_MassErase
                0x00000000       0x74 Drivers\STM32F7xx_HAL_Driver\Src\stm32f7xx_hal_flash_ex.o
 .text.FLASH_Erase_Sector
                0x00000000       0xa0 Drivers\STM32F7xx_HAL_Driver\Src\stm32f7xx_hal_flash_ex.o
 .text.FLASH_OB_GetWRP
                0x00000000       0x20 Drivers\STM32F7xx_HAL_Driver\Src\stm32f7xx_hal_flash_ex.o
 .text.FLASH_OB_UserConfig
                0x00000000       0x74 Drivers\STM32F7xx_HAL_Driver\Src\stm32f7xx_hal_flash_ex.o
 .text.FLASH_OB_GetUser
                0x00000000       0x20 Drivers\STM32F7xx_HAL_Driver\Src\stm32f7xx_hal_flash_ex.o
 .text.FLASH_OB_EnableWRP
                0x00000000       0x3c Drivers\STM32F7xx_HAL_Driver\Src\stm32f7xx_hal_flash_ex.o
 .text.FLASH_OB_DisableWRP
                0x00000000       0x38 Drivers\STM32F7xx_HAL_Driver\Src\stm32f7xx_hal_flash_ex.o
 .text.FLASH_OB_RDP_LevelConfig
                0x00000000       0x34 Drivers\STM32F7xx_HAL_Driver\Src\stm32f7xx_hal_flash_ex.o
 .text.FLASH_OB_BOR_LevelConfig
                0x00000000       0x2c Drivers\STM32F7xx_HAL_Driver\Src\stm32f7xx_hal_flash_ex.o
 .text.FLASH_OB_BootAddressConfig
                0x00000000       0x5c Drivers\STM32F7xx_HAL_Driver\Src\stm32f7xx_hal_flash_ex.o
 .text.FLASH_OB_GetRDP
                0x00000000       0x40 Drivers\STM32F7xx_HAL_Driver\Src\stm32f7xx_hal_flash_ex.o
 .text.FLASH_OB_GetBOR
                0x00000000       0x1c Drivers\STM32F7xx_HAL_Driver\Src\stm32f7xx_hal_flash_ex.o
 .text.FLASH_OB_GetBootAddress
                0x00000000       0x38 Drivers\STM32F7xx_HAL_Driver\Src\stm32f7xx_hal_flash_ex.o
 .debug_info    0x00000000      0x7c4 Drivers\STM32F7xx_HAL_Driver\Src\stm32f7xx_hal_flash_ex.o
 .debug_abbrev  0x00000000      0x218 Drivers\STM32F7xx_HAL_Driver\Src\stm32f7xx_hal_flash_ex.o
 .debug_aranges
                0x00000000       0xa0 Drivers\STM32F7xx_HAL_Driver\Src\stm32f7xx_hal_flash_ex.o
 .debug_ranges  0x00000000       0x90 Drivers\STM32F7xx_HAL_Driver\Src\stm32f7xx_hal_flash_ex.o
 .debug_line    0x00000000      0x472 Drivers\STM32F7xx_HAL_Driver\Src\stm32f7xx_hal_flash_ex.o
 .debug_str     0x00000000      0x6dc Drivers\STM32F7xx_HAL_Driver\Src\stm32f7xx_hal_flash_ex.o
 .comment       0x00000000       0x7d Drivers\STM32F7xx_HAL_Driver\Src\stm32f7xx_hal_flash_ex.o
 .debug_frame   0x00000000      0x284 Drivers\STM32F7xx_HAL_Driver\Src\stm32f7xx_hal_flash_ex.o
 .ARM.attributes
                0x00000000       0x37 Drivers\STM32F7xx_HAL_Driver\Src\stm32f7xx_hal_flash_ex.o
 .text          0x00000000        0x0 Drivers\STM32F7xx_HAL_Driver\Src\stm32f7xx_hal_gpio.o
 .data          0x00000000        0x0 Drivers\STM32F7xx_HAL_Driver\Src\stm32f7xx_hal_gpio.o
 .bss           0x00000000        0x0 Drivers\STM32F7xx_HAL_Driver\Src\stm32f7xx_hal_gpio.o
 .text.HAL_GPIO_DeInit
                0x00000000      0x218 Drivers\STM32F7xx_HAL_Driver\Src\stm32f7xx_hal_gpio.o
 .text.HAL_GPIO_ReadPin
                0x00000000       0x30 Drivers\STM32F7xx_HAL_Driver\Src\stm32f7xx_hal_gpio.o
 .text.HAL_GPIO_TogglePin
                0x00000000       0x36 Drivers\STM32F7xx_HAL_Driver\Src\stm32f7xx_hal_gpio.o
 .text.HAL_GPIO_LockPin
                0x00000000       0x50 Drivers\STM32F7xx_HAL_Driver\Src\stm32f7xx_hal_gpio.o
 .text.HAL_GPIO_EXTI_IRQHandler
                0x00000000       0x30 Drivers\STM32F7xx_HAL_Driver\Src\stm32f7xx_hal_gpio.o
 .text.HAL_GPIO_EXTI_Callback
                0x00000000       0x16 Drivers\STM32F7xx_HAL_Driver\Src\stm32f7xx_hal_gpio.o
 .text          0x00000000        0x0 Drivers\STM32F7xx_HAL_Driver\Src\stm32f7xx_hal_i2c.o
 .data          0x00000000        0x0 Drivers\STM32F7xx_HAL_Driver\Src\stm32f7xx_hal_i2c.o
 .bss           0x00000000        0x0 Drivers\STM32F7xx_HAL_Driver\Src\stm32f7xx_hal_i2c.o
 .text.HAL_I2C_Init
                0x00000000      0x11c Drivers\STM32F7xx_HAL_Driver\Src\stm32f7xx_hal_i2c.o
 .text.HAL_I2C_DeInit
                0x00000000       0x5e Drivers\STM32F7xx_HAL_Driver\Src\stm32f7xx_hal_i2c.o
 .text.HAL_I2C_MspInit
                0x00000000       0x14 Drivers\STM32F7xx_HAL_Driver\Src\stm32f7xx_hal_i2c.o
 .text.HAL_I2C_MspDeInit
                0x00000000       0x14 Drivers\STM32F7xx_HAL_Driver\Src\stm32f7xx_hal_i2c.o
 .text.HAL_I2C_Master_Transmit
                0x00000000      0x1e8 Drivers\STM32F7xx_HAL_Driver\Src\stm32f7xx_hal_i2c.o
 .text.HAL_I2C_Master_Receive
                0x00000000      0x1ec Drivers\STM32F7xx_HAL_Driver\Src\stm32f7xx_hal_i2c.o
 .text.HAL_I2C_Slave_Transmit
                0x00000000      0x212 Drivers\STM32F7xx_HAL_Driver\Src\stm32f7xx_hal_i2c.o
 .text.HAL_I2C_Slave_Receive
                0x00000000      0x1fe Drivers\STM32F7xx_HAL_Driver\Src\stm32f7xx_hal_i2c.o
 .text.HAL_I2C_Master_Transmit_IT
                0x00000000       0xe0 Drivers\STM32F7xx_HAL_Driver\Src\stm32f7xx_hal_i2c.o
 .text.HAL_I2C_Master_Receive_IT
                0x00000000       0xe0 Drivers\STM32F7xx_HAL_Driver\Src\stm32f7xx_hal_i2c.o
 .text.HAL_I2C_Slave_Transmit_IT
                0x00000000       0xa0 Drivers\STM32F7xx_HAL_Driver\Src\stm32f7xx_hal_i2c.o
 .text.HAL_I2C_Slave_Receive_IT
                0x00000000       0xa0 Drivers\STM32F7xx_HAL_Driver\Src\stm32f7xx_hal_i2c.o
 .text.HAL_I2C_Master_Transmit_DMA
                0x00000000      0x1e0 Drivers\STM32F7xx_HAL_Driver\Src\stm32f7xx_hal_i2c.o
 .text.HAL_I2C_Master_Receive_DMA
                0x00000000      0x1e0 Drivers\STM32F7xx_HAL_Driver\Src\stm32f7xx_hal_i2c.o
 .text.HAL_I2C_Slave_Transmit_DMA
                0x00000000      0x16c Drivers\STM32F7xx_HAL_Driver\Src\stm32f7xx_hal_i2c.o
 .text.HAL_I2C_Slave_Receive_DMA
                0x00000000      0x16c Drivers\STM32F7xx_HAL_Driver\Src\stm32f7xx_hal_i2c.o
 .text.HAL_I2C_Mem_Write
                0x00000000      0x228 Drivers\STM32F7xx_HAL_Driver\Src\stm32f7xx_hal_i2c.o
 .text.HAL_I2C_Mem_Read
                0x00000000      0x234 Drivers\STM32F7xx_HAL_Driver\Src\stm32f7xx_hal_i2c.o
 .text.HAL_I2C_Mem_Write_IT
                0x00000000      0x128 Drivers\STM32F7xx_HAL_Driver\Src\stm32f7xx_hal_i2c.o
 .text.HAL_I2C_Mem_Read_IT
                0x00000000      0x12c Drivers\STM32F7xx_HAL_Driver\Src\stm32f7xx_hal_i2c.o
 .text.HAL_I2C_Mem_Write_DMA
                0x00000000      0x1ec Drivers\STM32F7xx_HAL_Driver\Src\stm32f7xx_hal_i2c.o
 .text.HAL_I2C_Mem_Read_DMA
                0x00000000      0x1f0 Drivers\STM32F7xx_HAL_Driver\Src\stm32f7xx_hal_i2c.o
 .text.HAL_I2C_IsDeviceReady
                0x00000000      0x210 Drivers\STM32F7xx_HAL_Driver\Src\stm32f7xx_hal_i2c.o
 .text.HAL_I2C_Master_Seq_Transmit_IT
                0x00000000      0x108 Drivers\STM32F7xx_HAL_Driver\Src\stm32f7xx_hal_i2c.o
 .text.HAL_I2C_Master_Seq_Transmit_DMA
                0x00000000      0x208 Drivers\STM32F7xx_HAL_Driver\Src\stm32f7xx_hal_i2c.o
 .text.HAL_I2C_Master_Seq_Receive_IT
                0x00000000      0x108 Drivers\STM32F7xx_HAL_Driver\Src\stm32f7xx_hal_i2c.o
 .text.HAL_I2C_Master_Seq_Receive_DMA
                0x00000000      0x208 Drivers\STM32F7xx_HAL_Driver\Src\stm32f7xx_hal_i2c.o
 .text.HAL_I2C_Slave_Seq_Transmit_IT
                0x00000000      0x144 Drivers\STM32F7xx_HAL_Driver\Src\stm32f7xx_hal_i2c.o
 .text.HAL_I2C_Slave_Seq_Transmit_DMA
                0x00000000      0x26c Drivers\STM32F7xx_HAL_Driver\Src\stm32f7xx_hal_i2c.o
 .text.HAL_I2C_Slave_Seq_Receive_IT
                0x00000000      0x144 Drivers\STM32F7xx_HAL_Driver\Src\stm32f7xx_hal_i2c.o
 .text.HAL_I2C_Slave_Seq_Receive_DMA
                0x00000000      0x26c Drivers\STM32F7xx_HAL_Driver\Src\stm32f7xx_hal_i2c.o
 .text.HAL_I2C_EnableListen_IT
                0x00000000       0x3c Drivers\STM32F7xx_HAL_Driver\Src\stm32f7xx_hal_i2c.o
 .text.HAL_I2C_DisableListen_IT
                0x00000000       0x60 Drivers\STM32F7xx_HAL_Driver\Src\stm32f7xx_hal_i2c.o
 .text.HAL_I2C_Master_Abort_IT
                0x00000000       0x7c Drivers\STM32F7xx_HAL_Driver\Src\stm32f7xx_hal_i2c.o
 .text.HAL_I2C_EV_IRQHandler
                0x00000000       0x34 Drivers\STM32F7xx_HAL_Driver\Src\stm32f7xx_hal_i2c.o
 .text.HAL_I2C_ER_IRQHandler
                0x00000000       0xb6 Drivers\STM32F7xx_HAL_Driver\Src\stm32f7xx_hal_i2c.o
 .text.HAL_I2C_MasterTxCpltCallback
                0x00000000       0x14 Drivers\STM32F7xx_HAL_Driver\Src\stm32f7xx_hal_i2c.o
 .text.HAL_I2C_MasterRxCpltCallback
                0x00000000       0x14 Drivers\STM32F7xx_HAL_Driver\Src\stm32f7xx_hal_i2c.o
 .text.HAL_I2C_SlaveTxCpltCallback
                0x00000000       0x14 Drivers\STM32F7xx_HAL_Driver\Src\stm32f7xx_hal_i2c.o
 .text.HAL_I2C_SlaveRxCpltCallback
                0x00000000       0x14 Drivers\STM32F7xx_HAL_Driver\Src\stm32f7xx_hal_i2c.o
 .text.HAL_I2C_AddrCallback
                0x00000000       0x1c Drivers\STM32F7xx_HAL_Driver\Src\stm32f7xx_hal_i2c.o
 .text.HAL_I2C_ListenCpltCallback
                0x00000000       0x14 Drivers\STM32F7xx_HAL_Driver\Src\stm32f7xx_hal_i2c.o
 .text.HAL_I2C_MemTxCpltCallback
                0x00000000       0x14 Drivers\STM32F7xx_HAL_Driver\Src\stm32f7xx_hal_i2c.o
 .text.HAL_I2C_MemRxCpltCallback
                0x00000000       0x14 Drivers\STM32F7xx_HAL_Driver\Src\stm32f7xx_hal_i2c.o
 .text.HAL_I2C_ErrorCallback
                0x00000000       0x14 Drivers\STM32F7xx_HAL_Driver\Src\stm32f7xx_hal_i2c.o
 .text.HAL_I2C_AbortCpltCallback
                0x00000000       0x14 Drivers\STM32F7xx_HAL_Driver\Src\stm32f7xx_hal_i2c.o
 .text.HAL_I2C_GetState
                0x00000000       0x1c Drivers\STM32F7xx_HAL_Driver\Src\stm32f7xx_hal_i2c.o
 .text.HAL_I2C_GetMode
                0x00000000       0x1c Drivers\STM32F7xx_HAL_Driver\Src\stm32f7xx_hal_i2c.o
 .text.HAL_I2C_GetError
                0x00000000       0x18 Drivers\STM32F7xx_HAL_Driver\Src\stm32f7xx_hal_i2c.o
 .text.I2C_Master_ISR_IT
                0x00000000      0x23a Drivers\STM32F7xx_HAL_Driver\Src\stm32f7xx_hal_i2c.o
 .text.I2C_Slave_ISR_IT
                0x00000000      0x1fa Drivers\STM32F7xx_HAL_Driver\Src\stm32f7xx_hal_i2c.o
 .text.I2C_Master_ISR_DMA
                0x00000000      0x1d6 Drivers\STM32F7xx_HAL_Driver\Src\stm32f7xx_hal_i2c.o
 .text.I2C_Slave_ISR_DMA
                0x00000000      0x17c Drivers\STM32F7xx_HAL_Driver\Src\stm32f7xx_hal_i2c.o
 .text.I2C_RequestMemoryWrite
                0x00000000       0xa8 Drivers\STM32F7xx_HAL_Driver\Src\stm32f7xx_hal_i2c.o
 .text.I2C_RequestMemoryRead
                0x00000000       0xa8 Drivers\STM32F7xx_HAL_Driver\Src\stm32f7xx_hal_i2c.o
 .text.I2C_ITAddrCplt
                0x00000000      0x104 Drivers\STM32F7xx_HAL_Driver\Src\stm32f7xx_hal_i2c.o
 .text.I2C_ITMasterSeqCplt
                0x00000000       0x7a Drivers\STM32F7xx_HAL_Driver\Src\stm32f7xx_hal_i2c.o
 .text.I2C_ITSlaveSeqCplt
                0x00000000       0x7a Drivers\STM32F7xx_HAL_Driver\Src\stm32f7xx_hal_i2c.o
 .text.I2C_ITMasterCplt
                0x00000000      0x134 Drivers\STM32F7xx_HAL_Driver\Src\stm32f7xx_hal_i2c.o
 .text.I2C_ITSlaveCplt
                0x00000000      0x1a8 Drivers\STM32F7xx_HAL_Driver\Src\stm32f7xx_hal_i2c.o
 .text.I2C_ITListenCplt
                0x00000000       0xa8 Drivers\STM32F7xx_HAL_Driver\Src\stm32f7xx_hal_i2c.o
 .text.I2C_ITError
                0x00000000      0x180 Drivers\STM32F7xx_HAL_Driver\Src\stm32f7xx_hal_i2c.o
 .text.I2C_Flush_TXDR
                0x00000000       0x48 Drivers\STM32F7xx_HAL_Driver\Src\stm32f7xx_hal_i2c.o
 .text.I2C_DMAMasterTransmitCplt
                0x00000000       0x96 Drivers\STM32F7xx_HAL_Driver\Src\stm32f7xx_hal_i2c.o
 .text.I2C_DMASlaveTransmitCplt
                0x00000000       0x40 Drivers\STM32F7xx_HAL_Driver\Src\stm32f7xx_hal_i2c.o
 .text.I2C_DMAMasterReceiveCplt
                0x00000000       0x96 Drivers\STM32F7xx_HAL_Driver\Src\stm32f7xx_hal_i2c.o
 .text.I2C_DMASlaveReceiveCplt
                0x00000000       0x46 Drivers\STM32F7xx_HAL_Driver\Src\stm32f7xx_hal_i2c.o
 .text.I2C_DMAError
                0x00000000       0x74 Drivers\STM32F7xx_HAL_Driver\Src\stm32f7xx_hal_i2c.o
 .text.I2C_DMAAbort
                0x00000000       0x48 Drivers\STM32F7xx_HAL_Driver\Src\stm32f7xx_hal_i2c.o
 .text.I2C_WaitOnFlagUntilTimeout
                0x00000000       0x80 Drivers\STM32F7xx_HAL_Driver\Src\stm32f7xx_hal_i2c.o
 .text.I2C_WaitOnTXISFlagUntilTimeout
                0x00000000       0x80 Drivers\STM32F7xx_HAL_Driver\Src\stm32f7xx_hal_i2c.o
 .text.I2C_WaitOnSTOPFlagUntilTimeout
                0x00000000       0x78 Drivers\STM32F7xx_HAL_Driver\Src\stm32f7xx_hal_i2c.o
 .text.I2C_WaitOnRXNEFlagUntilTimeout
                0x00000000       0xd8 Drivers\STM32F7xx_HAL_Driver\Src\stm32f7xx_hal_i2c.o
 .text.I2C_IsAcknowledgeFailed
                0x00000000       0xcc Drivers\STM32F7xx_HAL_Driver\Src\stm32f7xx_hal_i2c.o
 .text.I2C_TransferConfig
                0x00000000       0x58 Drivers\STM32F7xx_HAL_Driver\Src\stm32f7xx_hal_i2c.o
 .text.I2C_Enable_IRQ
                0x00000000       0xdc Drivers\STM32F7xx_HAL_Driver\Src\stm32f7xx_hal_i2c.o
 .text.I2C_Disable_IRQ
                0x00000000       0xca Drivers\STM32F7xx_HAL_Driver\Src\stm32f7xx_hal_i2c.o
 .text.I2C_ConvertOtherXferOptions
                0x00000000       0x36 Drivers\STM32F7xx_HAL_Driver\Src\stm32f7xx_hal_i2c.o
 .debug_info    0x00000000     0x1fb5 Drivers\STM32F7xx_HAL_Driver\Src\stm32f7xx_hal_i2c.o
 .debug_abbrev  0x00000000      0x225 Drivers\STM32F7xx_HAL_Driver\Src\stm32f7xx_hal_i2c.o
 .debug_aranges
                0x00000000      0x288 Drivers\STM32F7xx_HAL_Driver\Src\stm32f7xx_hal_i2c.o
 .debug_ranges  0x00000000      0x278 Drivers\STM32F7xx_HAL_Driver\Src\stm32f7xx_hal_i2c.o
 .debug_line    0x00000000     0x15cd Drivers\STM32F7xx_HAL_Driver\Src\stm32f7xx_hal_i2c.o
 .debug_str     0x00000000     0x1098 Drivers\STM32F7xx_HAL_Driver\Src\stm32f7xx_hal_i2c.o
 .comment       0x00000000       0x7d Drivers\STM32F7xx_HAL_Driver\Src\stm32f7xx_hal_i2c.o
 .debug_frame   0x00000000      0xbbc Drivers\STM32F7xx_HAL_Driver\Src\stm32f7xx_hal_i2c.o
 .ARM.attributes
                0x00000000       0x37 Drivers\STM32F7xx_HAL_Driver\Src\stm32f7xx_hal_i2c.o
 .text          0x00000000        0x0 Drivers\STM32F7xx_HAL_Driver\Src\stm32f7xx_hal_i2c_ex.o
 .data          0x00000000        0x0 Drivers\STM32F7xx_HAL_Driver\Src\stm32f7xx_hal_i2c_ex.o
 .bss           0x00000000        0x0 Drivers\STM32F7xx_HAL_Driver\Src\stm32f7xx_hal_i2c_ex.o
 .text.HAL_I2CEx_ConfigAnalogFilter
                0x00000000       0x96 Drivers\STM32F7xx_HAL_Driver\Src\stm32f7xx_hal_i2c_ex.o
 .text.HAL_I2CEx_ConfigDigitalFilter
                0x00000000       0x98 Drivers\STM32F7xx_HAL_Driver\Src\stm32f7xx_hal_i2c_ex.o
 .text.HAL_I2CEx_EnableFastModePlus
                0x00000000       0x40 Drivers\STM32F7xx_HAL_Driver\Src\stm32f7xx_hal_i2c_ex.o
 .text.HAL_I2CEx_DisableFastModePlus
                0x00000000       0x44 Drivers\STM32F7xx_HAL_Driver\Src\stm32f7xx_hal_i2c_ex.o
 .debug_info    0x00000000      0x9f8 Drivers\STM32F7xx_HAL_Driver\Src\stm32f7xx_hal_i2c_ex.o
 .debug_abbrev  0x00000000      0x196 Drivers\STM32F7xx_HAL_Driver\Src\stm32f7xx_hal_i2c_ex.o
 .debug_aranges
                0x00000000       0x38 Drivers\STM32F7xx_HAL_Driver\Src\stm32f7xx_hal_i2c_ex.o
 .debug_ranges  0x00000000       0x28 Drivers\STM32F7xx_HAL_Driver\Src\stm32f7xx_hal_i2c_ex.o
 .debug_line    0x00000000      0x2f7 Drivers\STM32F7xx_HAL_Driver\Src\stm32f7xx_hal_i2c_ex.o
 .debug_str     0x00000000      0x9fc Drivers\STM32F7xx_HAL_Driver\Src\stm32f7xx_hal_i2c_ex.o
 .comment       0x00000000       0x7d Drivers\STM32F7xx_HAL_Driver\Src\stm32f7xx_hal_i2c_ex.o
 .debug_frame   0x00000000       0xb0 Drivers\STM32F7xx_HAL_Driver\Src\stm32f7xx_hal_i2c_ex.o
 .ARM.attributes
                0x00000000       0x37 Drivers\STM32F7xx_HAL_Driver\Src\stm32f7xx_hal_i2c_ex.o
 .text          0x00000000        0x0 Drivers\STM32F7xx_HAL_Driver\Src\stm32f7xx_hal_pwr.o
 .data          0x00000000        0x0 Drivers\STM32F7xx_HAL_Driver\Src\stm32f7xx_hal_pwr.o
 .bss           0x00000000        0x0 Drivers\STM32F7xx_HAL_Driver\Src\stm32f7xx_hal_pwr.o
 .text.HAL_PWR_DeInit
                0x00000000       0x2c Drivers\STM32F7xx_HAL_Driver\Src\stm32f7xx_hal_pwr.o
 .text.HAL_PWR_ConfigPVD
                0x00000000       0xc0 Drivers\STM32F7xx_HAL_Driver\Src\stm32f7xx_hal_pwr.o
 .text.HAL_PWR_EnablePVD
                0x00000000       0x20 Drivers\STM32F7xx_HAL_Driver\Src\stm32f7xx_hal_pwr.o
 .text.HAL_PWR_DisablePVD
                0x00000000       0x20 Drivers\STM32F7xx_HAL_Driver\Src\stm32f7xx_hal_pwr.o
 .text.HAL_PWR_EnableWakeUpPin
                0x00000000       0x40 Drivers\STM32F7xx_HAL_Driver\Src\stm32f7xx_hal_pwr.o
 .text.HAL_PWR_DisableWakeUpPin
                0x00000000       0x28 Drivers\STM32F7xx_HAL_Driver\Src\stm32f7xx_hal_pwr.o
 .text.HAL_PWR_EnterSLEEPMode
                0x00000000       0x40 Drivers\STM32F7xx_HAL_Driver\Src\stm32f7xx_hal_pwr.o
 .text.HAL_PWR_EnterSTOPMode
                0x00000000       0x70 Drivers\STM32F7xx_HAL_Driver\Src\stm32f7xx_hal_pwr.o
 .text.HAL_PWR_EnterSTANDBYMode
                0x00000000       0x30 Drivers\STM32F7xx_HAL_Driver\Src\stm32f7xx_hal_pwr.o
 .text.HAL_PWR_PVD_IRQHandler
                0x00000000       0x24 Drivers\STM32F7xx_HAL_Driver\Src\stm32f7xx_hal_pwr.o
 .text.HAL_PWR_PVDCallback
                0x00000000        0xe Drivers\STM32F7xx_HAL_Driver\Src\stm32f7xx_hal_pwr.o
 .text.HAL_PWR_EnableSleepOnExit
                0x00000000       0x20 Drivers\STM32F7xx_HAL_Driver\Src\stm32f7xx_hal_pwr.o
 .text.HAL_PWR_DisableSleepOnExit
                0x00000000       0x20 Drivers\STM32F7xx_HAL_Driver\Src\stm32f7xx_hal_pwr.o
 .text.HAL_PWR_EnableSEVOnPend
                0x00000000       0x20 Drivers\STM32F7xx_HAL_Driver\Src\stm32f7xx_hal_pwr.o
 .text.HAL_PWR_DisableSEVOnPend
                0x00000000       0x20 Drivers\STM32F7xx_HAL_Driver\Src\stm32f7xx_hal_pwr.o
 .text          0x00000000        0x0 Drivers\STM32F7xx_HAL_Driver\Src\stm32f7xx_hal_pwr_ex.o
 .data          0x00000000        0x0 Drivers\STM32F7xx_HAL_Driver\Src\stm32f7xx_hal_pwr_ex.o
 .bss           0x00000000        0x0 Drivers\STM32F7xx_HAL_Driver\Src\stm32f7xx_hal_pwr_ex.o
 .text.HAL_PWREx_EnableBkUpReg
                0x00000000       0x58 Drivers\STM32F7xx_HAL_Driver\Src\stm32f7xx_hal_pwr_ex.o
 .text.HAL_PWREx_DisableBkUpReg
                0x00000000       0x58 Drivers\STM32F7xx_HAL_Driver\Src\stm32f7xx_hal_pwr_ex.o
 .text.HAL_PWREx_EnableFlashPowerDown
                0x00000000       0x20 Drivers\STM32F7xx_HAL_Driver\Src\stm32f7xx_hal_pwr_ex.o
 .text.HAL_PWREx_DisableFlashPowerDown
                0x00000000       0x20 Drivers\STM32F7xx_HAL_Driver\Src\stm32f7xx_hal_pwr_ex.o
 .text.HAL_PWREx_EnableMainRegulatorLowVoltage
                0x00000000       0x20 Drivers\STM32F7xx_HAL_Driver\Src\stm32f7xx_hal_pwr_ex.o
 .text.HAL_PWREx_DisableMainRegulatorLowVoltage
                0x00000000       0x20 Drivers\STM32F7xx_HAL_Driver\Src\stm32f7xx_hal_pwr_ex.o
 .text.HAL_PWREx_EnableLowRegulatorLowVoltage
                0x00000000       0x20 Drivers\STM32F7xx_HAL_Driver\Src\stm32f7xx_hal_pwr_ex.o
 .text.HAL_PWREx_DisableLowRegulatorLowVoltage
                0x00000000       0x20 Drivers\STM32F7xx_HAL_Driver\Src\stm32f7xx_hal_pwr_ex.o
 .text.HAL_PWREx_DisableOverDrive
                0x00000000       0xa0 Drivers\STM32F7xx_HAL_Driver\Src\stm32f7xx_hal_pwr_ex.o
 .text.HAL_PWREx_EnterUnderDriveSTOPMode
                0x00000000       0xc8 Drivers\STM32F7xx_HAL_Driver\Src\stm32f7xx_hal_pwr_ex.o
 .text.HAL_PWREx_GetVoltageRange
                0x00000000       0x1c Drivers\STM32F7xx_HAL_Driver\Src\stm32f7xx_hal_pwr_ex.o
 .text.HAL_PWREx_ControlVoltageScaling
                0x00000000       0xf4 Drivers\STM32F7xx_HAL_Driver\Src\stm32f7xx_hal_pwr_ex.o
 .text          0x00000000        0x0 Drivers\STM32F7xx_HAL_Driver\Src\stm32f7xx_hal_rcc.o
 .data          0x00000000        0x0 Drivers\STM32F7xx_HAL_Driver\Src\stm32f7xx_hal_rcc.o
 .bss           0x00000000        0x0 Drivers\STM32F7xx_HAL_Driver\Src\stm32f7xx_hal_rcc.o
 .text.HAL_RCC_DeInit
                0x00000000      0x1b8 Drivers\STM32F7xx_HAL_Driver\Src\stm32f7xx_hal_rcc.o
 .text.HAL_RCC_MCOConfig
                0x00000000       0xc8 Drivers\STM32F7xx_HAL_Driver\Src\stm32f7xx_hal_rcc.o
 .text.HAL_RCC_EnableCSS
                0x00000000       0x20 Drivers\STM32F7xx_HAL_Driver\Src\stm32f7xx_hal_rcc.o
 .text.HAL_RCC_DisableCSS
                0x00000000       0x20 Drivers\STM32F7xx_HAL_Driver\Src\stm32f7xx_hal_rcc.o
 .text.HAL_RCC_GetOscConfig
                0x00000000      0x150 Drivers\STM32F7xx_HAL_Driver\Src\stm32f7xx_hal_rcc.o
 .text.HAL_RCC_GetClockConfig
                0x00000000       0x64 Drivers\STM32F7xx_HAL_Driver\Src\stm32f7xx_hal_rcc.o
 .text.HAL_RCC_NMI_IRQHandler
                0x00000000       0x28 Drivers\STM32F7xx_HAL_Driver\Src\stm32f7xx_hal_rcc.o
 .text.HAL_RCC_CSSCallback
                0x00000000        0xe Drivers\STM32F7xx_HAL_Driver\Src\stm32f7xx_hal_rcc.o
 .text          0x00000000        0x0 Drivers\STM32F7xx_HAL_Driver\Src\stm32f7xx_hal_rcc_ex.o
 .data          0x00000000        0x0 Drivers\STM32F7xx_HAL_Driver\Src\stm32f7xx_hal_rcc_ex.o
 .bss           0x00000000        0x0 Drivers\STM32F7xx_HAL_Driver\Src\stm32f7xx_hal_rcc_ex.o
 .text.HAL_RCCEx_GetPeriphCLKConfig
                0x00000000      0x248 Drivers\STM32F7xx_HAL_Driver\Src\stm32f7xx_hal_rcc_ex.o
 .text.HAL_RCCEx_GetPeriphCLKFreq
                0x00000000      0x2ac Drivers\STM32F7xx_HAL_Driver\Src\stm32f7xx_hal_rcc_ex.o
 .text.HAL_RCCEx_EnablePLLI2S
                0x00000000       0xa0 Drivers\STM32F7xx_HAL_Driver\Src\stm32f7xx_hal_rcc_ex.o
 .text.HAL_RCCEx_DisablePLLI2S
                0x00000000       0x48 Drivers\STM32F7xx_HAL_Driver\Src\stm32f7xx_hal_rcc_ex.o
 .text.HAL_RCCEx_EnablePLLSAI
                0x00000000       0xa4 Drivers\STM32F7xx_HAL_Driver\Src\stm32f7xx_hal_rcc_ex.o
 .text.HAL_RCCEx_DisablePLLSAI
                0x00000000       0x48 Drivers\STM32F7xx_HAL_Driver\Src\stm32f7xx_hal_rcc_ex.o
 .text          0x00000000        0x0 Drivers\STM32F7xx_HAL_Driver\Src\stm32f7xx_hal_rtc.o
 .data          0x00000000        0x0 Drivers\STM32F7xx_HAL_Driver\Src\stm32f7xx_hal_rtc.o
 .bss           0x00000000        0x0 Drivers\STM32F7xx_HAL_Driver\Src\stm32f7xx_hal_rtc.o
 .text.HAL_RTC_DeInit
                0x00000000      0x158 Drivers\STM32F7xx_HAL_Driver\Src\stm32f7xx_hal_rtc.o
 .text.HAL_RTC_MspInit
                0x00000000       0x14 Drivers\STM32F7xx_HAL_Driver\Src\stm32f7xx_hal_rtc.o
 .text.HAL_RTC_MspDeInit
                0x00000000       0x14 Drivers\STM32F7xx_HAL_Driver\Src\stm32f7xx_hal_rtc.o
 .text.HAL_RTC_SetAlarm
                0x00000000      0x230 Drivers\STM32F7xx_HAL_Driver\Src\stm32f7xx_hal_rtc.o
 .text.HAL_RTC_SetAlarm_IT
                0x00000000      0x270 Drivers\STM32F7xx_HAL_Driver\Src\stm32f7xx_hal_rtc.o
 .text.HAL_RTC_DeactivateAlarm
                0x00000000      0x11a Drivers\STM32F7xx_HAL_Driver\Src\stm32f7xx_hal_rtc.o
 .text.HAL_RTC_GetAlarm
                0x00000000      0x11e Drivers\STM32F7xx_HAL_Driver\Src\stm32f7xx_hal_rtc.o
 .text.HAL_RTC_AlarmIRQHandler
                0x00000000       0x8c Drivers\STM32F7xx_HAL_Driver\Src\stm32f7xx_hal_rtc.o
 .text.HAL_RTC_AlarmAEventCallback
                0x00000000       0x14 Drivers\STM32F7xx_HAL_Driver\Src\stm32f7xx_hal_rtc.o
 .text.HAL_RTC_PollForAlarmAEvent
                0x00000000       0x6e Drivers\STM32F7xx_HAL_Driver\Src\stm32f7xx_hal_rtc.o
 .text.HAL_RTC_GetState
                0x00000000       0x1a Drivers\STM32F7xx_HAL_Driver\Src\stm32f7xx_hal_rtc.o
 .text          0x00000000        0x0 Drivers\STM32F7xx_HAL_Driver\Src\stm32f7xx_hal_rtc_ex.o
 .data          0x00000000        0x0 Drivers\STM32F7xx_HAL_Driver\Src\stm32f7xx_hal_rtc_ex.o
 .bss           0x00000000        0x0 Drivers\STM32F7xx_HAL_Driver\Src\stm32f7xx_hal_rtc_ex.o
 .text.HAL_RTCEx_SetTimeStamp
                0x00000000       0xac Drivers\STM32F7xx_HAL_Driver\Src\stm32f7xx_hal_rtc_ex.o
 .text.HAL_RTCEx_SetTimeStamp_IT
                0x00000000       0xe8 Drivers\STM32F7xx_HAL_Driver\Src\stm32f7xx_hal_rtc_ex.o
 .text.HAL_RTCEx_DeactivateTimeStamp
                0x00000000       0x80 Drivers\STM32F7xx_HAL_Driver\Src\stm32f7xx_hal_rtc_ex.o
 .text.HAL_RTCEx_SetInternalTimeStamp
                0x00000000       0x62 Drivers\STM32F7xx_HAL_Driver\Src\stm32f7xx_hal_rtc_ex.o
 .text.HAL_RTCEx_DeactivateInternalTimeStamp
                0x00000000       0x62 Drivers\STM32F7xx_HAL_Driver\Src\stm32f7xx_hal_rtc_ex.o
 .text.HAL_RTCEx_GetTimeStamp
                0x00000000      0x140 Drivers\STM32F7xx_HAL_Driver\Src\stm32f7xx_hal_rtc_ex.o
 .text.HAL_RTCEx_SetTamper
                0x00000000      0x168 Drivers\STM32F7xx_HAL_Driver\Src\stm32f7xx_hal_rtc_ex.o
 .text.HAL_RTCEx_SetTamper_IT
                0x00000000      0x1d8 Drivers\STM32F7xx_HAL_Driver\Src\stm32f7xx_hal_rtc_ex.o
 .text.HAL_RTCEx_DeactivateTamper
                0x00000000       0xa8 Drivers\STM32F7xx_HAL_Driver\Src\stm32f7xx_hal_rtc_ex.o
 .text.HAL_RTCEx_TamperTimeStampIRQHandler
                0x00000000      0x120 Drivers\STM32F7xx_HAL_Driver\Src\stm32f7xx_hal_rtc_ex.o
 .text.HAL_RTCEx_TimeStampEventCallback
                0x00000000       0x14 Drivers\STM32F7xx_HAL_Driver\Src\stm32f7xx_hal_rtc_ex.o
 .text.HAL_RTCEx_Tamper1EventCallback
                0x00000000       0x14 Drivers\STM32F7xx_HAL_Driver\Src\stm32f7xx_hal_rtc_ex.o
 .text.HAL_RTCEx_Tamper2EventCallback
                0x00000000       0x14 Drivers\STM32F7xx_HAL_Driver\Src\stm32f7xx_hal_rtc_ex.o
 .text.HAL_RTCEx_Tamper3EventCallback
                0x00000000       0x14 Drivers\STM32F7xx_HAL_Driver\Src\stm32f7xx_hal_rtc_ex.o
 .text.HAL_RTCEx_PollForTimeStampEvent
                0x00000000       0x86 Drivers\STM32F7xx_HAL_Driver\Src\stm32f7xx_hal_rtc_ex.o
 .text.HAL_RTCEx_PollForTamper1Event
                0x00000000       0x6e Drivers\STM32F7xx_HAL_Driver\Src\stm32f7xx_hal_rtc_ex.o
 .text.HAL_RTCEx_PollForTamper2Event
                0x00000000       0x6e Drivers\STM32F7xx_HAL_Driver\Src\stm32f7xx_hal_rtc_ex.o
 .text.HAL_RTCEx_PollForTamper3Event
                0x00000000       0x70 Drivers\STM32F7xx_HAL_Driver\Src\stm32f7xx_hal_rtc_ex.o
 .text.HAL_RTCEx_SetWakeUpTimer
                0x00000000       0xea Drivers\STM32F7xx_HAL_Driver\Src\stm32f7xx_hal_rtc_ex.o
 .text.HAL_RTCEx_SetWakeUpTimer_IT
                0x00000000      0x190 Drivers\STM32F7xx_HAL_Driver\Src\stm32f7xx_hal_rtc_ex.o
 .text.HAL_RTCEx_DeactivateWakeUpTimer
                0x00000000       0xb0 Drivers\STM32F7xx_HAL_Driver\Src\stm32f7xx_hal_rtc_ex.o
 .text.HAL_RTCEx_GetWakeUpTimer
                0x00000000       0x1c Drivers\STM32F7xx_HAL_Driver\Src\stm32f7xx_hal_rtc_ex.o
 .text.HAL_RTCEx_WakeUpTimerIRQHandler
                0x00000000       0x58 Drivers\STM32F7xx_HAL_Driver\Src\stm32f7xx_hal_rtc_ex.o
 .text.HAL_RTCEx_WakeUpTimerEventCallback
                0x00000000       0x14 Drivers\STM32F7xx_HAL_Driver\Src\stm32f7xx_hal_rtc_ex.o
 .text.HAL_RTCEx_PollForWakeUpTimerEvent
                0x00000000       0x6e Drivers\STM32F7xx_HAL_Driver\Src\stm32f7xx_hal_rtc_ex.o
 .text.HAL_RTCEx_SetSmoothCalib
                0x00000000       0xb4 Drivers\STM32F7xx_HAL_Driver\Src\stm32f7xx_hal_rtc_ex.o
 .text.HAL_RTCEx_SetSynchroShift
                0x00000000       0xf8 Drivers\STM32F7xx_HAL_Driver\Src\stm32f7xx_hal_rtc_ex.o
 .text.HAL_RTCEx_SetCalibrationOutPut
                0x00000000       0x84 Drivers\STM32F7xx_HAL_Driver\Src\stm32f7xx_hal_rtc_ex.o
 .text.HAL_RTCEx_DeactivateCalibrationOutPut
                0x00000000       0x62 Drivers\STM32F7xx_HAL_Driver\Src\stm32f7xx_hal_rtc_ex.o
 .text.HAL_RTCEx_SetRefClock
                0x00000000       0x92 Drivers\STM32F7xx_HAL_Driver\Src\stm32f7xx_hal_rtc_ex.o
 .text.HAL_RTCEx_DeactivateRefClock
                0x00000000       0x92 Drivers\STM32F7xx_HAL_Driver\Src\stm32f7xx_hal_rtc_ex.o
 .text.HAL_RTCEx_EnableBypassShadow
                0x00000000       0x62 Drivers\STM32F7xx_HAL_Driver\Src\stm32f7xx_hal_rtc_ex.o
 .text.HAL_RTCEx_DisableBypassShadow
                0x00000000       0x62 Drivers\STM32F7xx_HAL_Driver\Src\stm32f7xx_hal_rtc_ex.o
 .text.HAL_RTCEx_AlarmBEventCallback
                0x00000000       0x14 Drivers\STM32F7xx_HAL_Driver\Src\stm32f7xx_hal_rtc_ex.o
 .text.HAL_RTCEx_PollForAlarmBEvent
                0x00000000       0x6e Drivers\STM32F7xx_HAL_Driver\Src\stm32f7xx_hal_rtc_ex.o
 .text          0x00000000        0x0 Drivers\STM32F7xx_HAL_Driver\Src\stm32f7xx_hal_sd.o
 .data          0x00000000        0x0 Drivers\STM32F7xx_HAL_Driver\Src\stm32f7xx_hal_sd.o
 .bss           0x00000000        0x0 Drivers\STM32F7xx_HAL_Driver\Src\stm32f7xx_hal_sd.o
 .text.HAL_SD_DeInit
                0x00000000       0x3e Drivers\STM32F7xx_HAL_Driver\Src\stm32f7xx_hal_sd.o
 .text.HAL_SD_MspInit
                0x00000000       0x14 Drivers\STM32F7xx_HAL_Driver\Src\stm32f7xx_hal_sd.o
 .text.HAL_SD_MspDeInit
                0x00000000       0x14 Drivers\STM32F7xx_HAL_Driver\Src\stm32f7xx_hal_sd.o
 .text.HAL_SD_ReadBlocks
                0x00000000      0x32c Drivers\STM32F7xx_HAL_Driver\Src\stm32f7xx_hal_sd.o
 .text.HAL_SD_WriteBlocks
                0x00000000      0x2ce Drivers\STM32F7xx_HAL_Driver\Src\stm32f7xx_hal_sd.o
 .text.HAL_SD_ReadBlocks_IT
                0x00000000      0x162 Drivers\STM32F7xx_HAL_Driver\Src\stm32f7xx_hal_sd.o
 .text.HAL_SD_WriteBlocks_IT
                0x00000000      0x162 Drivers\STM32F7xx_HAL_Driver\Src\stm32f7xx_hal_sd.o
 .text.HAL_SD_Erase
                0x00000000      0x198 Drivers\STM32F7xx_HAL_Driver\Src\stm32f7xx_hal_sd.o
 .text.HAL_SD_GetState
                0x00000000       0x1c Drivers\STM32F7xx_HAL_Driver\Src\stm32f7xx_hal_sd.o
 .text.HAL_SD_GetError
                0x00000000       0x18 Drivers\STM32F7xx_HAL_Driver\Src\stm32f7xx_hal_sd.o
 .text.HAL_SD_TxCpltCallback
                0x00000000       0x14 Drivers\STM32F7xx_HAL_Driver\Src\stm32f7xx_hal_sd.o
 .text.HAL_SD_RxCpltCallback
                0x00000000       0x14 Drivers\STM32F7xx_HAL_Driver\Src\stm32f7xx_hal_sd.o
 .text.HAL_SD_AbortCallback
                0x00000000       0x14 Drivers\STM32F7xx_HAL_Driver\Src\stm32f7xx_hal_sd.o
 .text.HAL_SD_GetCardCID
                0x00000000      0x1a6 Drivers\STM32F7xx_HAL_Driver\Src\stm32f7xx_hal_sd.o
 .text.HAL_SD_GetCardStatus
                0x00000000      0x16c Drivers\STM32F7xx_HAL_Driver\Src\stm32f7xx_hal_sd.o
 .text.HAL_SD_ConfigWideBusOperation
                0x00000000       0xf8 Drivers\STM32F7xx_HAL_Driver\Src\stm32f7xx_hal_sd.o
 .text.HAL_SD_Abort
                0x00000000       0xaa Drivers\STM32F7xx_HAL_Driver\Src\stm32f7xx_hal_sd.o
 .text.HAL_SD_Abort_IT
                0x00000000       0xf0 Drivers\STM32F7xx_HAL_Driver\Src\stm32f7xx_hal_sd.o
 .text.SD_PowerOFF
                0x00000000       0x1c Drivers\STM32F7xx_HAL_Driver\Src\stm32f7xx_hal_sd.o
 .text.SD_SendSDStatus
                0x00000000      0x1aa Drivers\STM32F7xx_HAL_Driver\Src\stm32f7xx_hal_sd.o
 .text.SD_WideBus_Enable
                0x00000000       0x9a Drivers\STM32F7xx_HAL_Driver\Src\stm32f7xx_hal_sd.o
 .text.SD_WideBus_Disable
                0x00000000       0x9a Drivers\STM32F7xx_HAL_Driver\Src\stm32f7xx_hal_sd.o
 .text.SD_FindSCR
                0x00000000      0x190 Drivers\STM32F7xx_HAL_Driver\Src\stm32f7xx_hal_sd.o
 .text          0x00000000        0x0 Drivers\STM32F7xx_HAL_Driver\Src\stm32f7xx_hal_tim.o
 .data          0x00000000        0x0 Drivers\STM32F7xx_HAL_Driver\Src\stm32f7xx_hal_tim.o
 .bss           0x00000000        0x0 Drivers\STM32F7xx_HAL_Driver\Src\stm32f7xx_hal_tim.o
 .debug_info    0x00000000      0x16b Drivers\STM32F7xx_HAL_Driver\Src\stm32f7xx_hal_tim.o
 .debug_abbrev  0x00000000       0x8d Drivers\STM32F7xx_HAL_Driver\Src\stm32f7xx_hal_tim.o
 .debug_aranges
                0x00000000       0x18 Drivers\STM32F7xx_HAL_Driver\Src\stm32f7xx_hal_tim.o
 .debug_line    0x00000000      0x1a3 Drivers\STM32F7xx_HAL_Driver\Src\stm32f7xx_hal_tim.o
 .debug_str     0x00000000      0x2d1 Drivers\STM32F7xx_HAL_Driver\Src\stm32f7xx_hal_tim.o
 .comment       0x00000000       0x7d Drivers\STM32F7xx_HAL_Driver\Src\stm32f7xx_hal_tim.o
 .ARM.attributes
                0x00000000       0x37 Drivers\STM32F7xx_HAL_Driver\Src\stm32f7xx_hal_tim.o
 .text          0x00000000        0x0 Drivers\STM32F7xx_HAL_Driver\Src\stm32f7xx_hal_tim_ex.o
 .data          0x00000000        0x0 Drivers\STM32F7xx_HAL_Driver\Src\stm32f7xx_hal_tim_ex.o
 .bss           0x00000000        0x0 Drivers\STM32F7xx_HAL_Driver\Src\stm32f7xx_hal_tim_ex.o
 .debug_info    0x00000000      0x16b Drivers\STM32F7xx_HAL_Driver\Src\stm32f7xx_hal_tim_ex.o
 .debug_abbrev  0x00000000       0x8d Drivers\STM32F7xx_HAL_Driver\Src\stm32f7xx_hal_tim_ex.o
 .debug_aranges
                0x00000000       0x18 Drivers\STM32F7xx_HAL_Driver\Src\stm32f7xx_hal_tim_ex.o
 .debug_line    0x00000000      0x1a3 Drivers\STM32F7xx_HAL_Driver\Src\stm32f7xx_hal_tim_ex.o
 .debug_str     0x00000000      0x2d4 Drivers\STM32F7xx_HAL_Driver\Src\stm32f7xx_hal_tim_ex.o
 .comment       0x00000000       0x7d Drivers\STM32F7xx_HAL_Driver\Src\stm32f7xx_hal_tim_ex.o
 .ARM.attributes
                0x00000000       0x37 Drivers\STM32F7xx_HAL_Driver\Src\stm32f7xx_hal_tim_ex.o
 .text          0x00000000        0x0 Drivers\STM32F7xx_HAL_Driver\Src\stm32f7xx_hal_uart.o
 .data          0x00000000        0x0 Drivers\STM32F7xx_HAL_Driver\Src\stm32f7xx_hal_uart.o
 .bss           0x00000000        0x0 Drivers\STM32F7xx_HAL_Driver\Src\stm32f7xx_hal_uart.o
 .text.HAL_HalfDuplex_Init
                0x00000000       0xac Drivers\STM32F7xx_HAL_Driver\Src\stm32f7xx_hal_uart.o
 .text.HAL_LIN_Init
                0x00000000       0xdc Drivers\STM32F7xx_HAL_Driver\Src\stm32f7xx_hal_uart.o
 .text.HAL_MultiProcessor_Init
                0x00000000       0xd4 Drivers\STM32F7xx_HAL_Driver\Src\stm32f7xx_hal_uart.o
 .text.HAL_UART_DeInit
                0x00000000       0x6a Drivers\STM32F7xx_HAL_Driver\Src\stm32f7xx_hal_uart.o
 .text.HAL_UART_MspInit
                0x00000000       0x14 Drivers\STM32F7xx_HAL_Driver\Src\stm32f7xx_hal_uart.o
 .text.HAL_UART_MspDeInit
                0x00000000       0x14 Drivers\STM32F7xx_HAL_Driver\Src\stm32f7xx_hal_uart.o
 .text.HAL_UART_Transmit
                0x00000000      0x120 Drivers\STM32F7xx_HAL_Driver\Src\stm32f7xx_hal_uart.o
 .text.HAL_UART_Receive
                0x00000000      0x198 Drivers\STM32F7xx_HAL_Driver\Src\stm32f7xx_hal_uart.o
 .text.HAL_UART_Transmit_IT
                0x00000000       0xb8 Drivers\STM32F7xx_HAL_Driver\Src\stm32f7xx_hal_uart.o
 .text.HAL_UART_Receive_DMA
                0x00000000      0x108 Drivers\STM32F7xx_HAL_Driver\Src\stm32f7xx_hal_uart.o
 .text.HAL_UART_DMAPause
                0x00000000       0xa8 Drivers\STM32F7xx_HAL_Driver\Src\stm32f7xx_hal_uart.o
 .text.HAL_UART_DMAResume
                0x00000000       0x8c Drivers\STM32F7xx_HAL_Driver\Src\stm32f7xx_hal_uart.o
 .text.HAL_UART_DMAStop
                0x00000000       0xd6 Drivers\STM32F7xx_HAL_Driver\Src\stm32f7xx_hal_uart.o
 .text.HAL_UART_Abort
                0x00000000      0x11c Drivers\STM32F7xx_HAL_Driver\Src\stm32f7xx_hal_uart.o
 .text.HAL_UART_AbortTransmit
                0x00000000       0x88 Drivers\STM32F7xx_HAL_Driver\Src\stm32f7xx_hal_uart.o
 .text.HAL_UART_AbortReceive
                0x00000000       0xb0 Drivers\STM32F7xx_HAL_Driver\Src\stm32f7xx_hal_uart.o
 .text.HAL_UART_Abort_IT
                0x00000000      0x16c Drivers\STM32F7xx_HAL_Driver\Src\stm32f7xx_hal_uart.o
 .text.HAL_UART_AbortTransmit_IT
                0x00000000       0xac Drivers\STM32F7xx_HAL_Driver\Src\stm32f7xx_hal_uart.o
 .text.HAL_UART_AbortReceive_IT
                0x00000000       0xdc Drivers\STM32F7xx_HAL_Driver\Src\stm32f7xx_hal_uart.o
 .text.HAL_UART_TxCpltCallback
                0x00000000       0x14 Drivers\STM32F7xx_HAL_Driver\Src\stm32f7xx_hal_uart.o
 .text.HAL_UART_RxCpltCallback
                0x00000000       0x14 Drivers\STM32F7xx_HAL_Driver\Src\stm32f7xx_hal_uart.o
 .text.HAL_UART_RxHalfCpltCallback
                0x00000000       0x14 Drivers\STM32F7xx_HAL_Driver\Src\stm32f7xx_hal_uart.o
 .text.HAL_UART_ErrorCallback
                0x00000000       0x14 Drivers\STM32F7xx_HAL_Driver\Src\stm32f7xx_hal_uart.o
 .text.HAL_UART_AbortCpltCallback
                0x00000000       0x14 Drivers\STM32F7xx_HAL_Driver\Src\stm32f7xx_hal_uart.o
 .text.HAL_UART_AbortTransmitCpltCallback
                0x00000000       0x14 Drivers\STM32F7xx_HAL_Driver\Src\stm32f7xx_hal_uart.o
 .text.HAL_UART_AbortReceiveCpltCallback
                0x00000000       0x14 Drivers\STM32F7xx_HAL_Driver\Src\stm32f7xx_hal_uart.o
 .text.HAL_MultiProcessor_EnableMuteMode
                0x00000000       0x4a Drivers\STM32F7xx_HAL_Driver\Src\stm32f7xx_hal_uart.o
 .text.HAL_MultiProcessor_DisableMuteMode
                0x00000000       0x4a Drivers\STM32F7xx_HAL_Driver\Src\stm32f7xx_hal_uart.o
 .text.HAL_MultiProcessor_EnterMuteMode
                0x00000000       0x24 Drivers\STM32F7xx_HAL_Driver\Src\stm32f7xx_hal_uart.o
 .text.HAL_HalfDuplex_EnableTransmitter
                0x00000000       0x60 Drivers\STM32F7xx_HAL_Driver\Src\stm32f7xx_hal_uart.o
 .text.HAL_HalfDuplex_EnableReceiver
                0x00000000       0x60 Drivers\STM32F7xx_HAL_Driver\Src\stm32f7xx_hal_uart.o
 .text.HAL_LIN_SendBreak
                0x00000000       0x50 Drivers\STM32F7xx_HAL_Driver\Src\stm32f7xx_hal_uart.o
 .text.HAL_UART_GetError
                0x00000000       0x18 Drivers\STM32F7xx_HAL_Driver\Src\stm32f7xx_hal_uart.o
 .text.UART_DMAReceiveCplt
                0x00000000       0x64 Drivers\STM32F7xx_HAL_Driver\Src\stm32f7xx_hal_uart.o
 .text.UART_DMARxHalfCplt
                0x00000000       0x1c Drivers\STM32F7xx_HAL_Driver\Src\stm32f7xx_hal_uart.o
 .text.UART_DMATxAbortCallback
                0x00000000       0x62 Drivers\STM32F7xx_HAL_Driver\Src\stm32f7xx_hal_uart.o
 .text.UART_DMARxAbortCallback
                0x00000000       0x72 Drivers\STM32F7xx_HAL_Driver\Src\stm32f7xx_hal_uart.o
 .text.UART_DMATxOnlyAbortCallback
                0x00000000       0x2a Drivers\STM32F7xx_HAL_Driver\Src\stm32f7xx_hal_uart.o
 .text.UART_DMARxOnlyAbortCallback
                0x00000000       0x42 Drivers\STM32F7xx_HAL_Driver\Src\stm32f7xx_hal_uart.o
 .text.UART_TxISR_8BIT
                0x00000000       0x72 Drivers\STM32F7xx_HAL_Driver\Src\stm32f7xx_hal_uart.o
 .text.UART_TxISR_16BIT
                0x00000000       0x7a Drivers\STM32F7xx_HAL_Driver\Src\stm32f7xx_hal_uart.o
 .text          0x00000000        0x0 Drivers\STM32F7xx_HAL_Driver\Src\stm32f7xx_ll_sdmmc.o
 .data          0x00000000        0x0 Drivers\STM32F7xx_HAL_Driver\Src\stm32f7xx_ll_sdmmc.o
 .bss           0x00000000        0x0 Drivers\STM32F7xx_HAL_Driver\Src\stm32f7xx_ll_sdmmc.o
 .text.SDMMC_PowerState_OFF
                0x00000000       0x1c Drivers\STM32F7xx_HAL_Driver\Src\stm32f7xx_ll_sdmmc.o
 .text.SDMMC_GetDataCounter
                0x00000000       0x18 Drivers\STM32F7xx_HAL_Driver\Src\stm32f7xx_ll_sdmmc.o
 .text.SDMMC_GetFIFOCount
                0x00000000       0x1a Drivers\STM32F7xx_HAL_Driver\Src\stm32f7xx_ll_sdmmc.o
 .text.SDMMC_SetSDMMCReadWaitMode
                0x00000000       0x28 Drivers\STM32F7xx_HAL_Driver\Src\stm32f7xx_ll_sdmmc.o
 .text.SDMMC_CmdSDEraseStartAdd
                0x00000000       0x48 Drivers\STM32F7xx_HAL_Driver\Src\stm32f7xx_ll_sdmmc.o
 .text.SDMMC_CmdSDEraseEndAdd
                0x00000000       0x48 Drivers\STM32F7xx_HAL_Driver\Src\stm32f7xx_ll_sdmmc.o
 .text.SDMMC_CmdEraseStartAdd
                0x00000000       0x48 Drivers\STM32F7xx_HAL_Driver\Src\stm32f7xx_ll_sdmmc.o
 .text.SDMMC_CmdEraseEndAdd
                0x00000000       0x48 Drivers\STM32F7xx_HAL_Driver\Src\stm32f7xx_ll_sdmmc.o
 .text.SDMMC_CmdErase
                0x00000000       0x46 Drivers\STM32F7xx_HAL_Driver\Src\stm32f7xx_ll_sdmmc.o
 .text.SDMMC_CmdBusWidth
                0x00000000       0x48 Drivers\STM32F7xx_HAL_Driver\Src\stm32f7xx_ll_sdmmc.o
 .text.SDMMC_CmdSendSCR
                0x00000000       0x46 Drivers\STM32F7xx_HAL_Driver\Src\stm32f7xx_ll_sdmmc.o
 .text.SDMMC_CmdStatusRegister
                0x00000000       0x46 Drivers\STM32F7xx_HAL_Driver\Src\stm32f7xx_ll_sdmmc.o
 .text.SDMMC_CmdOpCondition
                0x00000000       0x42 Drivers\STM32F7xx_HAL_Driver\Src\stm32f7xx_ll_sdmmc.o
 .text.SDMMC_CmdSwitch
                0x00000000       0x48 Drivers\STM32F7xx_HAL_Driver\Src\stm32f7xx_ll_sdmmc.o
 .text          0x00000000        0x0 Middlewares\Third_Party\FatFs\src\diskio.o
 .data          0x00000000        0x0 Middlewares\Third_Party\FatFs\src\diskio.o
 .bss           0x00000000        0x0 Middlewares\Third_Party\FatFs\src\diskio.o
 .text.get_fattime
                0x00000000       0x10 Middlewares\Third_Party\FatFs\src\diskio.o
 .text          0x00000000        0x0 Middlewares\Third_Party\FatFs\src\ff.o
 .data          0x00000000        0x0 Middlewares\Third_Party\FatFs\src\ff.o
 .bss           0x00000000        0x0 Middlewares\Third_Party\FatFs\src\ff.o
 .text.pick_lfn
                0x00000000       0xc8 Middlewares\Third_Party\FatFs\src\ff.o
 .text.dir_read
                0x00000000      0x14e Middlewares\Third_Party\FatFs\src\ff.o
 .text.dir_remove
                0x00000000       0x94 Middlewares\Third_Party\FatFs\src\ff.o
 .text.get_fileinfo
                0x00000000      0x1ba Middlewares\Third_Party\FatFs\src\ff.o
 .text.f_lseek  0x00000000      0x356 Middlewares\Third_Party\FatFs\src\ff.o
 .text.f_opendir
                0x00000000       0xe6 Middlewares\Third_Party\FatFs\src\ff.o
 .text.f_closedir
                0x00000000       0x4c Middlewares\Third_Party\FatFs\src\ff.o
 .text.f_readdir
                0x00000000       0x7a Middlewares\Third_Party\FatFs\src\ff.o
 .text.f_stat   0x00000000       0x72 Middlewares\Third_Party\FatFs\src\ff.o
 .text.f_getfree
                0x00000000      0x16a Middlewares\Third_Party\FatFs\src\ff.o
 .text.f_truncate
                0x00000000       0xea Middlewares\Third_Party\FatFs\src\ff.o
 .text.f_unlink
                0x00000000      0x156 Middlewares\Third_Party\FatFs\src\ff.o
 .text.f_mkdir  0x00000000      0x20e Middlewares\Third_Party\FatFs\src\ff.o
 .text.f_rename
                0x00000000      0x1f2 Middlewares\Third_Party\FatFs\src\ff.o
 .text.f_mkfs   0x00000000      0x858 Middlewares\Third_Party\FatFs\src\ff.o
 .text.f_gets   0x00000000       0x7a Middlewares\Third_Party\FatFs\src\ff.o
 .text.putc_bfd
                0x00000000       0x7a Middlewares\Third_Party\FatFs\src\ff.o
 .text.putc_flush
                0x00000000       0x4c Middlewares\Third_Party\FatFs\src\ff.o
 .text.putc_init
                0x00000000       0x2a Middlewares\Third_Party\FatFs\src\ff.o
 .text.f_putc   0x00000000       0x3a Middlewares\Third_Party\FatFs\src\ff.o
 .text.f_puts   0x00000000       0x48 Middlewares\Third_Party\FatFs\src\ff.o
 .text.f_printf
                0x00000000      0x440 Middlewares\Third_Party\FatFs\src\ff.o
 .rodata.cst32.10328
                0x00000000        0xe Middlewares\Third_Party\FatFs\src\ff.o
 .rodata.cst.10327
                0x00000000        0xe Middlewares\Third_Party\FatFs\src\ff.o
 .text          0x00000000        0x0 Middlewares\Third_Party\FatFs\src\ff_gen_drv.o
 .data          0x00000000        0x0 Middlewares\Third_Party\FatFs\src\ff_gen_drv.o
 .bss           0x00000000        0x0 Middlewares\Third_Party\FatFs\src\ff_gen_drv.o
 .text.FATFS_UnLinkDriverEx
                0x00000000       0x70 Middlewares\Third_Party\FatFs\src\ff_gen_drv.o
 .text.FATFS_UnLinkDriver
                0x00000000       0x1a Middlewares\Third_Party\FatFs\src\ff_gen_drv.o
 .text.FATFS_GetAttachedDriversNbr
                0x00000000       0x18 Middlewares\Third_Party\FatFs\src\ff_gen_drv.o
 .text          0x00000000        0x0 Middlewares\Third_Party\FatFs\src\option\ccsbcs.o
 .data          0x00000000        0x0 Middlewares\Third_Party\FatFs\src\option\ccsbcs.o
 .bss           0x00000000        0x0 Middlewares\Third_Party\FatFs\src\option\ccsbcs.o
 .text          0x00000000        0x0 Middlewares\Third_Party\FatFs\src\option\syscall.o
 .data          0x00000000        0x0 Middlewares\Third_Party\FatFs\src\option\syscall.o
 .bss           0x00000000        0x0 Middlewares\Third_Party\FatFs\src\option\syscall.o
 .debug_info    0x00000000      0x988 Middlewares\Third_Party\FatFs\src\option\syscall.o
 .debug_abbrev  0x00000000      0x174 Middlewares\Third_Party\FatFs\src\option\syscall.o
 .debug_aranges
                0x00000000       0x18 Middlewares\Third_Party\FatFs\src\option\syscall.o
 .debug_line    0x00000000      0x2a2 Middlewares\Third_Party\FatFs\src\option\syscall.o
 .debug_str     0x00000000      0x6fa Middlewares\Third_Party\FatFs\src\option\syscall.o
 .comment       0x00000000       0x7d Middlewares\Third_Party\FatFs\src\option\syscall.o
 .ARM.attributes
                0x00000000       0x37 Middlewares\Third_Party\FatFs\src\option\syscall.o
 .text          0x00000000        0x0 Src\bsp_driver_sd.o
 .data          0x00000000        0x0 Src\bsp_driver_sd.o
 .bss           0x00000000        0x0 Src\bsp_driver_sd.o
 .text.BSP_SD_ITConfig
                0x00000000       0x10 Src\bsp_driver_sd.o
 .text.BSP_SD_ReadBlocks
                0x00000000       0x3c Src\bsp_driver_sd.o
 .text.BSP_SD_WriteBlocks
                0x00000000       0x3c Src\bsp_driver_sd.o
 .text.BSP_SD_Erase
                0x00000000       0x30 Src\bsp_driver_sd.o
 .text.BSP_SD_WriteCpltCallback
                0x00000000        0xe Src\bsp_driver_sd.o
 .text.BSP_SD_ReadCpltCallback
                0x00000000        0xe Src\bsp_driver_sd.o
 .text          0x00000000        0x0 Src\can.o
 .data          0x00000000        0x0 Src\can.o
 .bss           0x00000000        0x0 Src\can.o
 .text.MX_CAN1_Init
                0x00000000       0x6c Src\can.o
 .text.HAL_CAN_MspDeInit
                0x00000000       0x54 Src\can.o
 .text          0x00000000        0x0 Src\dma.o
 .data          0x00000000        0x0 Src\dma.o
 .bss           0x00000000        0x0 Src\dma.o
 .text          0x00000000        0x0 Src\fatfs.o
 .data          0x00000000        0x0 Src\fatfs.o
 .bss           0x00000000        0x0 Src\fatfs.o
 .text          0x00000000        0x0 Src\gfxsimulator.o
 .data          0x00000000        0x0 Src\gfxsimulator.o
 .bss           0x00000000        0x0 Src\gfxsimulator.o
 .text.MX_GFXSIMULATOR_Init
                0x00000000        0xe Src\gfxsimulator.o
 .debug_info    0x00000000      0x184 Src\gfxsimulator.o
 .debug_abbrev  0x00000000       0xa9 Src\gfxsimulator.o
 .debug_aranges
                0x00000000       0x20 Src\gfxsimulator.o
 .debug_ranges  0x00000000       0x10 Src\gfxsimulator.o
 .debug_line    0x00000000      0x1cc Src\gfxsimulator.o
 .debug_str     0x00000000      0x2c4 Src\gfxsimulator.o
 .comment       0x00000000       0x7d Src\gfxsimulator.o
 .debug_frame   0x00000000       0x30 Src\gfxsimulator.o
 .ARM.attributes
                0x00000000       0x37 Src\gfxsimulator.o
 .text          0x00000000        0x0 Src\gpio.o
 .data          0x00000000        0x0 Src\gpio.o
 .bss           0x00000000        0x0 Src\gpio.o
 .text          0x00000000        0x0 Src\main.o
 .data          0x00000000        0x0 Src\main.o
 .bss           0x00000000        0x0 Src\main.o
 .rodata.backupRegistersCount
                0x00000000        0x1 Src\main.o
 .rodata.backupRegistersIndexes
                0x00000000        0xc Src\main.o
 .rodata.backupRegistersValues
                0x00000000        0xc Src\main.o
 .text.FIFOTest
                0x00000000      0x140 Src\main.o
 .text          0x00000000        0x0 Src\rtc.o
 .data          0x00000000        0x0 Src\rtc.o
 .bss           0x00000000        0x0 Src\rtc.o
 .text.MX_RTC_Init
                0x00000000       0xb8 Src\rtc.o
 .text.HAL_RTC_MspDeInit
                0x00000000       0x34 Src\rtc.o
 .text          0x00000000        0x0 Src\sd_diskio.o
 .data          0x00000000        0x0 Src\sd_diskio.o
 .bss           0x00000000        0x0 Src\sd_diskio.o
 .text          0x00000000        0x0 Src\sdmmc.o
 .data          0x00000000        0x0 Src\sdmmc.o
 .bss           0x00000000        0x0 Src\sdmmc.o
 .text.HAL_SD_MspDeInit
                0x00000000       0x64 Src\sdmmc.o
 .text          0x00000000        0x0 Src\stm32f7xx_hal_msp.o
 .data          0x00000000        0x0 Src\stm32f7xx_hal_msp.o
 .bss           0x00000000        0x0 Src\stm32f7xx_hal_msp.o
 .text          0x00000000        0x0 Src\stm32f7xx_it.o
 .data          0x00000000        0x0 Src\stm32f7xx_it.o
 .bss           0x00000000        0x0 Src\stm32f7xx_it.o
 .text          0x00000000        0x0 Src\syscalls.o
 .data          0x00000000        0x0 Src\syscalls.o
 .bss           0x00000000        0x0 Src\syscalls.o
 .bss.__env     0x00000000        0x4 Src\syscalls.o
 .data.environ  0x00000000        0x4 Src\syscalls.o
 .text.initialise_monitor_handles
                0x00000000        0xe Src\syscalls.o
 .text._getpid  0x00000000       0x10 Src\syscalls.o
 .text._kill    0x00000000       0x20 Src\syscalls.o
 .text._exit    0x00000000       0x14 Src\syscalls.o
 .text._read    0x00000000       0x3a Src\syscalls.o
 .text._write   0x00000000       0x38 Src\syscalls.o
 .text._close   0x00000000       0x18 Src\syscalls.o
 .text._fstat   0x00000000       0x20 Src\syscalls.o
 .text._isatty  0x00000000       0x16 Src\syscalls.o
 .text._lseek   0x00000000       0x1a Src\syscalls.o
 .text._open    0x00000000       0x1c Src\syscalls.o
 .text._wait    0x00000000       0x1e Src\syscalls.o
 .text._unlink  0x00000000       0x1e Src\syscalls.o
 .text._times   0x00000000       0x18 Src\syscalls.o
 .text._stat    0x00000000       0x20 Src\syscalls.o
 .text._link    0x00000000       0x20 Src\syscalls.o
 .text._fork    0x00000000       0x16 Src\syscalls.o
 .text._execve  0x00000000       0x22 Src\syscalls.o
 .text          0x00000000        0x0 Src\system_stm32f7xx.o
 .data          0x00000000        0x0 Src\system_stm32f7xx.o
 .bss           0x00000000        0x0 Src\system_stm32f7xx.o
 .text.SystemCoreClockUpdate
                0x00000000       0xf0 Src\system_stm32f7xx.o
 .text          0x00000000        0x0 Src\usart.o
 .data          0x00000000        0x0 Src\usart.o
 .bss           0x00000000        0x0 Src\usart.o
 .text.MX_USART1_UART_Init
                0x00000000       0x68 Src\usart.o
 .text.HAL_UART_MspDeInit
                0x00000000       0x4c Src\usart.o
 .text          0x00000000        0x0 Src\user\action_scheduler.o
 .data          0x00000000        0x0 Src\user\action_scheduler.o
 .bss           0x00000000        0x0 Src\user\action_scheduler.o
 .rodata.backupRegistersCount
                0x00000000        0x1 Src\user\action_scheduler.o
 .rodata.backupRegistersIndexes
                0x00000000        0xc Src\user\action_scheduler.o
 .rodata.backupRegistersValues
                0x00000000        0xc Src\user\action_scheduler.o
 .text          0x00000000        0x0 Src\user\can_receiver.o
 .data          0x00000000        0x0 Src\user\can_receiver.o
 .bss           0x00000000        0x0 Src\user\can_receiver.o
 .text.CANReceiver_stop
                0x00000000       0x16 Src\user\can_receiver.o
 .text          0x00000000        0x0 Src\user\can_transceiver_driver.o
 .data          0x00000000        0x0 Src\user\can_transceiver_driver.o
 .bss           0x00000000        0x0 Src\user\can_transceiver_driver.o
 .text.CANTransceiverDriver_transmitMsg
                0x00000000       0x18 Src\user\can_transceiver_driver.o
 .text          0x00000000        0x0 Src\user\config.o
 .data          0x00000000        0x0 Src\user\config.o
 .bss           0x00000000        0x0 Src\user\config.o
 .text.ConfigDataManager_getIDsList
                0x00000000       0x7c Src\user\config.o
 .text.ConfigDataManager_checkCorrectnessData
                0x00000000       0x62 Src\user\config.o
 .text.ConfigDataManager_findChannel
                0x00000000       0xb6 Src\user\config.o
 .text          0x00000000        0x0 Src\user\data_saver.o
 .data          0x00000000        0x0 Src\user\data_saver.o
 .bss           0x00000000        0x0 Src\user\data_saver.o
 .rodata.backupRegistersCount
                0x00000000        0x1 Src\user\data_saver.o
 .rodata.backupRegistersIndexes
                0x00000000        0xc Src\user\data_saver.o
 .rodata.backupRegistersValues
                0x00000000        0xc Src\user\data_saver.o
 .text          0x00000000        0x0 Src\user\do_driver.o
 .data          0x00000000        0x0 Src\user\do_driver.o
 .bss           0x00000000        0x0 Src\user\do_driver.o
 .text.DODriver_Toggle
                0x00000000       0x54 Src\user\do_driver.o
 .text          0x00000000        0x0 Src\user\fifo_queue.o
 .data          0x00000000        0x0 Src\user\fifo_queue.o
 .bss           0x00000000        0x0 Src\user\fifo_queue.o
 .text.FIFOQueue_lastElement
                0x00000000       0x94 Src\user\fifo_queue.o
 .text.FIFOQueue_elementsNumber
                0x00000000       0x40 Src\user\fifo_queue.o
 .text          0x00000000        0x0 Src\user\fifo_queue_multiread.o
 .data          0x00000000        0x0 Src\user\fifo_queue_multiread.o
 .bss           0x00000000        0x0 Src\user\fifo_queue_multiread.o
 .text          0x00000000        0x0 Src\user\file_reading_buffer.o
 .data          0x00000000        0x0 Src\user\file_reading_buffer.o
 .bss           0x00000000        0x0 Src\user\file_reading_buffer.o
 .text.FileReadingBuffer_skipBytes
                0x00000000       0x50 Src\user\file_reading_buffer.o
 .text          0x00000000        0x0 Src\user\file_system_wrapper.o
 .data          0x00000000        0x0 Src\user\file_system_wrapper.o
 .bss           0x00000000        0x0 Src\user\file_system_wrapper.o
 .text.FileSystemWrapper_putString
                0x00000000       0x56 Src\user\file_system_wrapper.o
 .text.FileSystemWrapper_sync
                0x00000000       0x44 Src\user\file_system_wrapper.o
 .text          0x00000000        0x0 Src\user\file_writing_buffer.o
 .data          0x00000000        0x0 Src\user\file_writing_buffer.o
 .bss           0x00000000        0x0 Src\user\file_writing_buffer.o
 .text.FileWritingBuffer_resetBuffer
                0x00000000       0x32 Src\user\file_writing_buffer.o
 .text.FileWritingBuffer_flushingThread
                0x00000000       0x62 Src\user\file_writing_buffer.o
 .text          0x00000000        0x0 Src\user\fixed_point.o
 .data          0x00000000        0x0 Src\user\fixed_point.o
 .bss           0x00000000        0x0 Src\user\fixed_point.o
 .text.FixedPoint_constr
                0x00000000       0x78 Src\user\fixed_point.o
 .text.FixedPoint_a_equal_b
                0x00000000       0xd2 Src\user\fixed_point.o
 .text.FixedPoint_a_lessorequal_b
                0x00000000       0x88 Src\user\fixed_point.o
 .text.FixedPoint_a_greaterorequal_b
                0x00000000       0x88 Src\user\fixed_point.o
 .text.FixedPoint_a_greater_b
                0x00000000       0xb4 Src\user\fixed_point.o
 .text.FixedPoint_a_less_b
                0x00000000       0xb4 Src\user\fixed_point.o
 .text          0x00000000        0x0 Src\user\led_driver.o
 .data          0x00000000        0x0 Src\user\led_driver.o
 .bss           0x00000000        0x0 Src\user\led_driver.o
 .text          0x00000000        0x0 Src\user\ms_timer_driver.o
 .data          0x00000000        0x0 Src\user\ms_timer_driver.o
 .bss           0x00000000        0x0 Src\user\ms_timer_driver.o
 .text.MSTimerDriver_stopCounting
                0x00000000       0x52 Src\user\ms_timer_driver.o
 .text.MSTimerDriver_resetCounter
                0x00000000       0x42 Src\user\ms_timer_driver.o
 .text          0x00000000        0x0 Src\user\rtc_driver.o
 .data          0x00000000        0x0 Src\user\rtc_driver.o
 .bss           0x00000000        0x0 Src\user\rtc_driver.o
 .rodata.backupRegistersCount
                0x00000000        0x1 Src\user\rtc_driver.o
 .text.RTCDriver_addSeconds
                0x00000000      0x250 Src\user\rtc_driver.o
 .text.RTCDriver_isAfter
                0x00000000       0xa2 Src\user\rtc_driver.o
 .text          0x00000000        0x0 Src\user\sim28_gps_driver.o
 .data          0x00000000        0x0 Src\user\sim28_gps_driver.o
 .bss           0x00000000        0x0 Src\user\sim28_gps_driver.o
 .debug_info    0x00000000      0x16b Src\user\sim28_gps_driver.o
 .debug_abbrev  0x00000000       0x8d Src\user\sim28_gps_driver.o
 .debug_aranges
                0x00000000       0x18 Src\user\sim28_gps_driver.o
 .debug_line    0x00000000      0x1a3 Src\user\sim28_gps_driver.o
 .debug_str     0x00000000      0x2b8 Src\user\sim28_gps_driver.o
 .comment       0x00000000       0x7d Src\user\sim28_gps_driver.o
 .ARM.attributes
                0x00000000       0x37 Src\user\sim28_gps_driver.o
 .text          0x00000000        0x0 Src\user\string_operations.o
 .data          0x00000000        0x0 Src\user\string_operations.o
 .bss           0x00000000        0x0 Src\user\string_operations.o
 .text.hexChar2Uint8
                0x00000000       0x72 Src\user\string_operations.o
 .text.uInt8ToString
                0x00000000       0x30 Src\user\string_operations.o
 .text.appendUInt8ToString
                0x00000000       0x58 Src\user\string_operations.o
 .text.uInt8ToHexString
                0x00000000       0x44 Src\user\string_operations.o
 .text.appendUint8ToHexString
                0x00000000       0x70 Src\user\string_operations.o
 .text.uInt32ToString
                0x00000000       0x2c Src\user\string_operations.o
 .text.appendUInt32ToString
                0x00000000       0x54 Src\user\string_operations.o
 .text.isDecimalChar
                0x00000000       0x28 Src\user\string_operations.o
 .text.strCharCat
                0x00000000       0x2a Src\user\string_operations.o
 .text          0x00000000        0x0 Src\user\uart_driver.o
 .data          0x00000000        0x0 Src\user\uart_driver.o
 .bss           0x00000000        0x0 Src\user\uart_driver.o
 .text.UartDriver_getBaudRate
                0x00000000       0x40 Src\user\uart_driver.o
 .text.UartDriver_setBaudRate
                0x00000000       0xae Src\user\uart_driver.o
 .text.UartDriver_receiveNBytes
                0x00000000      0x158 Src\user\uart_driver.o
 .text.UartDriver_receiveBytesTerminationSign
                0x00000000      0x184 Src\user\uart_driver.o
 .text.UartDriver_sendAndReceiveTerminationSign
                0x00000000       0xc8 Src\user\uart_driver.o
 .text.UartDriver_sendAndReceiveNBytes
                0x00000000       0xc0 Src\user\uart_driver.o
 .text.UartDriver_removeReceivedByteCallback
                0x00000000       0x82 Src\user\uart_driver.o
 .text.UartDriver_stopReceiver
                0x00000000       0x44 Src\user\uart_driver.o
 .text.UartDriver_stopTransmitter
                0x00000000       0x3c Src\user\uart_driver.o
 .text._UartDriver_synchronousReceiverInnerByteReceivedCallback
                0x00000000       0x46 Src\user\uart_driver.o
 .text          0x00000000        0x0 Src\user\uart_receiver_start_length.o
 .data          0x00000000        0x0 Src\user\uart_receiver_start_length.o
 .bss           0x00000000        0x0 Src\user\uart_receiver_start_length.o
 .text          0x00000000        0x0 Src\user\uart_receiver_start_term.o
 .data          0x00000000        0x0 Src\user\uart_receiver_start_term.o
 .bss           0x00000000        0x0 Src\user\uart_receiver_start_term.o
 .text          0x00000000        0x0 Src\user\ublox_m8_gps_driver.o
 .data          0x00000000        0x0 Src\user\ublox_m8_gps_driver.o
 .bss           0x00000000        0x0 Src\user\ublox_m8_gps_driver.o
 .text.GPSDriver_testGNGGA1
                0x00000000       0x60 Src\user\ublox_m8_gps_driver.o
 .text.GPSDriver_testGNGSA1
                0x00000000       0x84 Src\user\ublox_m8_gps_driver.o
 .text.GPSDriver_testGNRMC1
                0x00000000       0x60 Src\user\ublox_m8_gps_driver.o
 .text.GPSDriver_test
                0x00000000       0x12 Src\user\ublox_m8_gps_driver.o
 .text          0x00000000       0x14 startup\startup_stm32f767xx.o
 .data          0x00000000        0x0 startup\startup_stm32f767xx.o
 .bss           0x00000000        0x0 startup\startup_stm32f767xx.o
 .text          0x00000000        0x0 c:/program files (x86)/atollic/truestudio for stm32 9.2.0/armtools/bin/../lib/gcc/arm-atollic-eabi/6.3.1/../../../../arm-atollic-eabi/lib/armv7e-m/fpu/fpv5-d16\libc_nano.a(lib_a-errno.o)
 .data          0x00000000        0x0 c:/program files (x86)/atollic/truestudio for stm32 9.2.0/armtools/bin/../lib/gcc/arm-atollic-eabi/6.3.1/../../../../arm-atollic-eabi/lib/armv7e-m/fpu/fpv5-d16\libc_nano.a(lib_a-errno.o)
 .bss           0x00000000        0x0 c:/program files (x86)/atollic/truestudio for stm32 9.2.0/armtools/bin/../lib/gcc/arm-atollic-eabi/6.3.1/../../../../arm-atollic-eabi/lib/armv7e-m/fpu/fpv5-d16\libc_nano.a(lib_a-errno.o)
 .text          0x00000000        0x0 c:/program files (x86)/atollic/truestudio for stm32 9.2.0/armtools/bin/../lib/gcc/arm-atollic-eabi/6.3.1/../../../../arm-atollic-eabi/lib/armv7e-m/fpu/fpv5-d16\libc_nano.a(lib_a-impure.o)
 .data          0x00000000        0x0 c:/program files (x86)/atollic/truestudio for stm32 9.2.0/armtools/bin/../lib/gcc/arm-atollic-eabi/6.3.1/../../../../arm-atollic-eabi/lib/armv7e-m/fpu/fpv5-d16\libc_nano.a(lib_a-impure.o)
 .bss           0x00000000        0x0 c:/program files (x86)/atollic/truestudio for stm32 9.2.0/armtools/bin/../lib/gcc/arm-atollic-eabi/6.3.1/../../../../arm-atollic-eabi/lib/armv7e-m/fpu/fpv5-d16\libc_nano.a(lib_a-impure.o)
 .rodata._global_impure_ptr
                0x00000000        0x4 c:/program files (x86)/atollic/truestudio for stm32 9.2.0/armtools/bin/../lib/gcc/arm-atollic-eabi/6.3.1/../../../../arm-atollic-eabi/lib/armv7e-m/fpu/fpv5-d16\libc_nano.a(lib_a-impure.o)
 .text          0x00000000        0x0 c:/program files (x86)/atollic/truestudio for stm32 9.2.0/armtools/bin/../lib/gcc/arm-atollic-eabi/6.3.1/../../../../arm-atollic-eabi/lib/armv7e-m/fpu/fpv5-d16\libc_nano.a(lib_a-init.o)
 .data          0x00000000        0x0 c:/program files (x86)/atollic/truestudio for stm32 9.2.0/armtools/bin/../lib/gcc/arm-atollic-eabi/6.3.1/../../../../arm-atollic-eabi/lib/armv7e-m/fpu/fpv5-d16\libc_nano.a(lib_a-init.o)
 .bss           0x00000000        0x0 c:/program files (x86)/atollic/truestudio for stm32 9.2.0/armtools/bin/../lib/gcc/arm-atollic-eabi/6.3.1/../../../../arm-atollic-eabi/lib/armv7e-m/fpu/fpv5-d16\libc_nano.a(lib_a-init.o)
 .text          0x00000000        0x0 c:/program files (x86)/atollic/truestudio for stm32 9.2.0/armtools/bin/../lib/gcc/arm-atollic-eabi/6.3.1/../../../../arm-atollic-eabi/lib/armv7e-m/fpu/fpv5-d16\libc_nano.a(lib_a-memcpy-stub.o)
 .data          0x00000000        0x0 c:/program files (x86)/atollic/truestudio for stm32 9.2.0/armtools/bin/../lib/gcc/arm-atollic-eabi/6.3.1/../../../../arm-atollic-eabi/lib/armv7e-m/fpu/fpv5-d16\libc_nano.a(lib_a-memcpy-stub.o)
 .bss           0x00000000        0x0 c:/program files (x86)/atollic/truestudio for stm32 9.2.0/armtools/bin/../lib/gcc/arm-atollic-eabi/6.3.1/../../../../arm-atollic-eabi/lib/armv7e-m/fpu/fpv5-d16\libc_nano.a(lib_a-memcpy-stub.o)
 .text          0x00000000        0x0 c:/program files (x86)/atollic/truestudio for stm32 9.2.0/armtools/bin/../lib/gcc/arm-atollic-eabi/6.3.1/../../../../arm-atollic-eabi/lib/armv7e-m/fpu/fpv5-d16\libc_nano.a(lib_a-memset.o)
 .data          0x00000000        0x0 c:/program files (x86)/atollic/truestudio for stm32 9.2.0/armtools/bin/../lib/gcc/arm-atollic-eabi/6.3.1/../../../../arm-atollic-eabi/lib/armv7e-m/fpu/fpv5-d16\libc_nano.a(lib_a-memset.o)
 .bss           0x00000000        0x0 c:/program files (x86)/atollic/truestudio for stm32 9.2.0/armtools/bin/../lib/gcc/arm-atollic-eabi/6.3.1/../../../../arm-atollic-eabi/lib/armv7e-m/fpu/fpv5-d16\libc_nano.a(lib_a-memset.o)
 .text          0x00000000        0x0 c:/program files (x86)/atollic/truestudio for stm32 9.2.0/armtools/bin/../lib/gcc/arm-atollic-eabi/6.3.1/../../../../arm-atollic-eabi/lib/armv7e-m/fpu/fpv5-d16\libc_nano.a(lib_a-sprintf.o)
 .data          0x00000000        0x0 c:/program files (x86)/atollic/truestudio for stm32 9.2.0/armtools/bin/../lib/gcc/arm-atollic-eabi/6.3.1/../../../../arm-atollic-eabi/lib/armv7e-m/fpu/fpv5-d16\libc_nano.a(lib_a-sprintf.o)
 .bss           0x00000000        0x0 c:/program files (x86)/atollic/truestudio for stm32 9.2.0/armtools/bin/../lib/gcc/arm-atollic-eabi/6.3.1/../../../../arm-atollic-eabi/lib/armv7e-m/fpu/fpv5-d16\libc_nano.a(lib_a-sprintf.o)
 .text._sprintf_r
                0x00000000       0x40 c:/program files (x86)/atollic/truestudio for stm32 9.2.0/armtools/bin/../lib/gcc/arm-atollic-eabi/6.3.1/../../../../arm-atollic-eabi/lib/armv7e-m/fpu/fpv5-d16\libc_nano.a(lib_a-sprintf.o)
 .text          0x00000000        0x0 c:/program files (x86)/atollic/truestudio for stm32 9.2.0/armtools/bin/../lib/gcc/arm-atollic-eabi/6.3.1/../../../../arm-atollic-eabi/lib/armv7e-m/fpu/fpv5-d16\libc_nano.a(lib_a-strcat.o)
 .data          0x00000000        0x0 c:/program files (x86)/atollic/truestudio for stm32 9.2.0/armtools/bin/../lib/gcc/arm-atollic-eabi/6.3.1/../../../../arm-atollic-eabi/lib/armv7e-m/fpu/fpv5-d16\libc_nano.a(lib_a-strcat.o)
 .bss           0x00000000        0x0 c:/program files (x86)/atollic/truestudio for stm32 9.2.0/armtools/bin/../lib/gcc/arm-atollic-eabi/6.3.1/../../../../arm-atollic-eabi/lib/armv7e-m/fpu/fpv5-d16\libc_nano.a(lib_a-strcat.o)
 .text.strcat   0x00000000       0x1e c:/program files (x86)/atollic/truestudio for stm32 9.2.0/armtools/bin/../lib/gcc/arm-atollic-eabi/6.3.1/../../../../arm-atollic-eabi/lib/armv7e-m/fpu/fpv5-d16\libc_nano.a(lib_a-strcat.o)
 .debug_frame   0x00000000       0x28 c:/program files (x86)/atollic/truestudio for stm32 9.2.0/armtools/bin/../lib/gcc/arm-atollic-eabi/6.3.1/../../../../arm-atollic-eabi/lib/armv7e-m/fpu/fpv5-d16\libc_nano.a(lib_a-strcat.o)
 .ARM.attributes
                0x00000000       0x32 c:/program files (x86)/atollic/truestudio for stm32 9.2.0/armtools/bin/../lib/gcc/arm-atollic-eabi/6.3.1/../../../../arm-atollic-eabi/lib/armv7e-m/fpu/fpv5-d16\libc_nano.a(lib_a-strcat.o)
 .data          0x00000000        0x0 c:/program files (x86)/atollic/truestudio for stm32 9.2.0/armtools/bin/../lib/gcc/arm-atollic-eabi/6.3.1/../../../../arm-atollic-eabi/lib/armv7e-m/fpu/fpv5-d16\libc_nano.a(lib_a-strlen.o)
 .bss           0x00000000        0x0 c:/program files (x86)/atollic/truestudio for stm32 9.2.0/armtools/bin/../lib/gcc/arm-atollic-eabi/6.3.1/../../../../arm-atollic-eabi/lib/armv7e-m/fpu/fpv5-d16\libc_nano.a(lib_a-strlen.o)
 .text          0x00000000        0x0 c:/program files (x86)/atollic/truestudio for stm32 9.2.0/armtools/bin/../lib/gcc/arm-atollic-eabi/6.3.1/../../../../arm-atollic-eabi/lib/armv7e-m/fpu/fpv5-d16\libc_nano.a(lib_a-nano-svfprintf.o)
 .data          0x00000000        0x0 c:/program files (x86)/atollic/truestudio for stm32 9.2.0/armtools/bin/../lib/gcc/arm-atollic-eabi/6.3.1/../../../../arm-atollic-eabi/lib/armv7e-m/fpu/fpv5-d16\libc_nano.a(lib_a-nano-svfprintf.o)
 .bss           0x00000000        0x0 c:/program files (x86)/atollic/truestudio for stm32 9.2.0/armtools/bin/../lib/gcc/arm-atollic-eabi/6.3.1/../../../../arm-atollic-eabi/lib/armv7e-m/fpu/fpv5-d16\libc_nano.a(lib_a-nano-svfprintf.o)
 .text.__ssprint_r
                0x00000000       0xf4 c:/program files (x86)/atollic/truestudio for stm32 9.2.0/armtools/bin/../lib/gcc/arm-atollic-eabi/6.3.1/../../../../arm-atollic-eabi/lib/armv7e-m/fpu/fpv5-d16\libc_nano.a(lib_a-nano-svfprintf.o)
 .text          0x00000000        0x0 c:/program files (x86)/atollic/truestudio for stm32 9.2.0/armtools/bin/../lib/gcc/arm-atollic-eabi/6.3.1/../../../../arm-atollic-eabi/lib/armv7e-m/fpu/fpv5-d16\libc_nano.a(lib_a-nano-vfprintf_i.o)
 .data          0x00000000        0x0 c:/program files (x86)/atollic/truestudio for stm32 9.2.0/armtools/bin/../lib/gcc/arm-atollic-eabi/6.3.1/../../../../arm-atollic-eabi/lib/armv7e-m/fpu/fpv5-d16\libc_nano.a(lib_a-nano-vfprintf_i.o)
 .bss           0x00000000        0x0 c:/program files (x86)/atollic/truestudio for stm32 9.2.0/armtools/bin/../lib/gcc/arm-atollic-eabi/6.3.1/../../../../arm-atollic-eabi/lib/armv7e-m/fpu/fpv5-d16\libc_nano.a(lib_a-nano-vfprintf_i.o)
 .data          0x00000000        0x0 c:/program files (x86)/atollic/truestudio for stm32 9.2.0/armtools/bin/../lib/gcc/arm-atollic-eabi/6.3.1/../../../../arm-atollic-eabi/lib/armv7e-m/fpu/fpv5-d16\libc_nano.a(lib_a-memchr.o)
 .bss           0x00000000        0x0 c:/program files (x86)/atollic/truestudio for stm32 9.2.0/armtools/bin/../lib/gcc/arm-atollic-eabi/6.3.1/../../../../arm-atollic-eabi/lib/armv7e-m/fpu/fpv5-d16\libc_nano.a(lib_a-memchr.o)
 .text          0x00000000        0x0 c:/program files (x86)/atollic/truestudio for stm32 9.2.0/armtools/bin/../lib/gcc/arm-atollic-eabi/6.3.1/../../../../arm-atollic-eabi/lib/armv7e-m/fpu/fpv5-d16\libc_nano.a(lib_a-memmove.o)
 .data          0x00000000        0x0 c:/program files (x86)/atollic/truestudio for stm32 9.2.0/armtools/bin/../lib/gcc/arm-atollic-eabi/6.3.1/../../../../arm-atollic-eabi/lib/armv7e-m/fpu/fpv5-d16\libc_nano.a(lib_a-memmove.o)
 .bss           0x00000000        0x0 c:/program files (x86)/atollic/truestudio for stm32 9.2.0/armtools/bin/../lib/gcc/arm-atollic-eabi/6.3.1/../../../../arm-atollic-eabi/lib/armv7e-m/fpu/fpv5-d16\libc_nano.a(lib_a-memmove.o)
 .text          0x00000000        0x0 c:/program files (x86)/atollic/truestudio for stm32 9.2.0/armtools/bin/../lib/gcc/arm-atollic-eabi/6.3.1/../../../../arm-atollic-eabi/lib/armv7e-m/fpu/fpv5-d16\libc_nano.a(lib_a-nano-freer.o)
 .data          0x00000000        0x0 c:/program files (x86)/atollic/truestudio for stm32 9.2.0/armtools/bin/../lib/gcc/arm-atollic-eabi/6.3.1/../../../../arm-atollic-eabi/lib/armv7e-m/fpu/fpv5-d16\libc_nano.a(lib_a-nano-freer.o)
 .bss           0x00000000        0x0 c:/program files (x86)/atollic/truestudio for stm32 9.2.0/armtools/bin/../lib/gcc/arm-atollic-eabi/6.3.1/../../../../arm-atollic-eabi/lib/armv7e-m/fpu/fpv5-d16\libc_nano.a(lib_a-nano-freer.o)
 .text          0x00000000        0x0 c:/program files (x86)/atollic/truestudio for stm32 9.2.0/armtools/bin/../lib/gcc/arm-atollic-eabi/6.3.1/../../../../arm-atollic-eabi/lib/armv7e-m/fpu/fpv5-d16\libc_nano.a(lib_a-nano-mallocr.o)
 .data          0x00000000        0x0 c:/program files (x86)/atollic/truestudio for stm32 9.2.0/armtools/bin/../lib/gcc/arm-atollic-eabi/6.3.1/../../../../arm-atollic-eabi/lib/armv7e-m/fpu/fpv5-d16\libc_nano.a(lib_a-nano-mallocr.o)
 .bss           0x00000000        0x0 c:/program files (x86)/atollic/truestudio for stm32 9.2.0/armtools/bin/../lib/gcc/arm-atollic-eabi/6.3.1/../../../../arm-atollic-eabi/lib/armv7e-m/fpu/fpv5-d16\libc_nano.a(lib_a-nano-mallocr.o)
 .text          0x00000000        0x0 c:/program files (x86)/atollic/truestudio for stm32 9.2.0/armtools/bin/../lib/gcc/arm-atollic-eabi/6.3.1/../../../../arm-atollic-eabi/lib/armv7e-m/fpu/fpv5-d16\libc_nano.a(lib_a-nano-reallocr.o)
 .data          0x00000000        0x0 c:/program files (x86)/atollic/truestudio for stm32 9.2.0/armtools/bin/../lib/gcc/arm-atollic-eabi/6.3.1/../../../../arm-atollic-eabi/lib/armv7e-m/fpu/fpv5-d16\libc_nano.a(lib_a-nano-reallocr.o)
 .bss           0x00000000        0x0 c:/program files (x86)/atollic/truestudio for stm32 9.2.0/armtools/bin/../lib/gcc/arm-atollic-eabi/6.3.1/../../../../arm-atollic-eabi/lib/armv7e-m/fpu/fpv5-d16\libc_nano.a(lib_a-nano-reallocr.o)
 .text          0x00000000        0x0 c:/program files (x86)/atollic/truestudio for stm32 9.2.0/armtools/bin/../lib/gcc/arm-atollic-eabi/6.3.1/../../../../arm-atollic-eabi/lib/armv7e-m/fpu/fpv5-d16\libc_nano.a(lib_a-sbrkr.o)
 .data          0x00000000        0x0 c:/program files (x86)/atollic/truestudio for stm32 9.2.0/armtools/bin/../lib/gcc/arm-atollic-eabi/6.3.1/../../../../arm-atollic-eabi/lib/armv7e-m/fpu/fpv5-d16\libc_nano.a(lib_a-sbrkr.o)
 .bss           0x00000000        0x0 c:/program files (x86)/atollic/truestudio for stm32 9.2.0/armtools/bin/../lib/gcc/arm-atollic-eabi/6.3.1/../../../../arm-atollic-eabi/lib/armv7e-m/fpu/fpv5-d16\libc_nano.a(lib_a-sbrkr.o)
 .text          0x00000000        0x0 c:/program files (x86)/atollic/truestudio for stm32 9.2.0/armtools/bin/../lib/gcc/arm-atollic-eabi/6.3.1/../../../../arm-atollic-eabi/lib/armv7e-m/fpu/fpv5-d16\libc_nano.a(lib_a-mlock.o)
 .data          0x00000000        0x0 c:/program files (x86)/atollic/truestudio for stm32 9.2.0/armtools/bin/../lib/gcc/arm-atollic-eabi/6.3.1/../../../../arm-atollic-eabi/lib/armv7e-m/fpu/fpv5-d16\libc_nano.a(lib_a-mlock.o)
 .bss           0x00000000        0x0 c:/program files (x86)/atollic/truestudio for stm32 9.2.0/armtools/bin/../lib/gcc/arm-atollic-eabi/6.3.1/../../../../arm-atollic-eabi/lib/armv7e-m/fpu/fpv5-d16\libc_nano.a(lib_a-mlock.o)
 .text          0x00000000        0x0 c:/program files (x86)/atollic/truestudio for stm32 9.2.0/armtools/bin/../lib/gcc/arm-atollic-eabi/6.3.1/../../../../arm-atollic-eabi/lib/armv7e-m/fpu/fpv5-d16\libc_nano.a(lib_a-nano-msizer.o)
 .data          0x00000000        0x0 c:/program files (x86)/atollic/truestudio for stm32 9.2.0/armtools/bin/../lib/gcc/arm-atollic-eabi/6.3.1/../../../../arm-atollic-eabi/lib/armv7e-m/fpu/fpv5-d16\libc_nano.a(lib_a-nano-msizer.o)
 .bss           0x00000000        0x0 c:/program files (x86)/atollic/truestudio for stm32 9.2.0/armtools/bin/../lib/gcc/arm-atollic-eabi/6.3.1/../../../../arm-atollic-eabi/lib/armv7e-m/fpu/fpv5-d16\libc_nano.a(lib_a-nano-msizer.o)
 .text          0x00000000        0x0 c:/program files (x86)/atollic/truestudio for stm32 9.2.0/armtools/bin/../lib/gcc/arm-atollic-eabi/6.3.1/../../../../arm-atollic-eabi/lib/armv7e-m/fpu/fpv5-d16\libc_nano.a(lib_a-reent.o)
 .data          0x00000000        0x0 c:/program files (x86)/atollic/truestudio for stm32 9.2.0/armtools/bin/../lib/gcc/arm-atollic-eabi/6.3.1/../../../../arm-atollic-eabi/lib/armv7e-m/fpu/fpv5-d16\libc_nano.a(lib_a-reent.o)
 .bss           0x00000000        0x0 c:/program files (x86)/atollic/truestudio for stm32 9.2.0/armtools/bin/../lib/gcc/arm-atollic-eabi/6.3.1/../../../../arm-atollic-eabi/lib/armv7e-m/fpu/fpv5-d16\libc_nano.a(lib_a-reent.o)
 .text.cleanup_glue
                0x00000000       0x1a c:/program files (x86)/atollic/truestudio for stm32 9.2.0/armtools/bin/../lib/gcc/arm-atollic-eabi/6.3.1/../../../../arm-atollic-eabi/lib/armv7e-m/fpu/fpv5-d16\libc_nano.a(lib_a-reent.o)
 .text._reclaim_reent
                0x00000000       0xb8 c:/program files (x86)/atollic/truestudio for stm32 9.2.0/armtools/bin/../lib/gcc/arm-atollic-eabi/6.3.1/../../../../arm-atollic-eabi/lib/armv7e-m/fpu/fpv5-d16\libc_nano.a(lib_a-reent.o)
 .data          0x00000000        0x0 c:/program files (x86)/atollic/truestudio for stm32 9.2.0/armtools/bin/../lib/gcc/arm-atollic-eabi/6.3.1/armv7e-m/fpu/fpv5-d16\libgcc.a(_aeabi_uldivmod.o)
 .bss           0x00000000        0x0 c:/program files (x86)/atollic/truestudio for stm32 9.2.0/armtools/bin/../lib/gcc/arm-atollic-eabi/6.3.1/armv7e-m/fpu/fpv5-d16\libgcc.a(_aeabi_uldivmod.o)
 .data          0x00000000        0x0 c:/program files (x86)/atollic/truestudio for stm32 9.2.0/armtools/bin/../lib/gcc/arm-atollic-eabi/6.3.1/armv7e-m/fpu/fpv5-d16\libgcc.a(_udivmoddi4.o)
 .bss           0x00000000        0x0 c:/program files (x86)/atollic/truestudio for stm32 9.2.0/armtools/bin/../lib/gcc/arm-atollic-eabi/6.3.1/armv7e-m/fpu/fpv5-d16\libgcc.a(_udivmoddi4.o)
 .ARM.extab     0x00000000        0x0 c:/program files (x86)/atollic/truestudio for stm32 9.2.0/armtools/bin/../lib/gcc/arm-atollic-eabi/6.3.1/armv7e-m/fpu/fpv5-d16\libgcc.a(_udivmoddi4.o)
 .data          0x00000000        0x0 c:/program files (x86)/atollic/truestudio for stm32 9.2.0/armtools/bin/../lib/gcc/arm-atollic-eabi/6.3.1/armv7e-m/fpu/fpv5-d16\libgcc.a(_dvmd_tls.o)
 .bss           0x00000000        0x0 c:/program files (x86)/atollic/truestudio for stm32 9.2.0/armtools/bin/../lib/gcc/arm-atollic-eabi/6.3.1/armv7e-m/fpu/fpv5-d16\libgcc.a(_dvmd_tls.o)
 .text          0x00000000        0x0 c:/program files (x86)/atollic/truestudio for stm32 9.2.0/armtools/bin/../lib/gcc/arm-atollic-eabi/6.3.1/armv7e-m/fpu/fpv5-d16/crtend.o
 .data          0x00000000        0x0 c:/program files (x86)/atollic/truestudio for stm32 9.2.0/armtools/bin/../lib/gcc/arm-atollic-eabi/6.3.1/armv7e-m/fpu/fpv5-d16/crtend.o
 .bss           0x00000000        0x0 c:/program files (x86)/atollic/truestudio for stm32 9.2.0/armtools/bin/../lib/gcc/arm-atollic-eabi/6.3.1/armv7e-m/fpu/fpv5-d16/crtend.o
 .eh_frame      0x00000000        0x4 c:/program files (x86)/atollic/truestudio for stm32 9.2.0/armtools/bin/../lib/gcc/arm-atollic-eabi/6.3.1/armv7e-m/fpu/fpv5-d16/crtend.o
 .ARM.attributes
                0x00000000       0x32 c:/program files (x86)/atollic/truestudio for stm32 9.2.0/armtools/bin/../lib/gcc/arm-atollic-eabi/6.3.1/armv7e-m/fpu/fpv5-d16/crtend.o
 .text          0x00000000        0x0 c:/program files (x86)/atollic/truestudio for stm32 9.2.0/armtools/bin/../lib/gcc/arm-atollic-eabi/6.3.1/armv7e-m/fpu/fpv5-d16/crtn.o
 .data          0x00000000        0x0 c:/program files (x86)/atollic/truestudio for stm32 9.2.0/armtools/bin/../lib/gcc/arm-atollic-eabi/6.3.1/armv7e-m/fpu/fpv5-d16/crtn.o
 .bss           0x00000000        0x0 c:/program files (x86)/atollic/truestudio for stm32 9.2.0/armtools/bin/../lib/gcc/arm-atollic-eabi/6.3.1/armv7e-m/fpu/fpv5-d16/crtn.o

Memory Configuration

Name             Origin             Length             Attributes
RAM              0x20000000         0x00080000         xrw
FLASH            0x08000000         0x00200000         xr
*default*        0x00000000         0xffffffff

Linker script and memory map

LOAD c:/program files (x86)/atollic/truestudio for stm32 9.2.0/armtools/bin/../lib/gcc/arm-atollic-eabi/6.3.1/armv7e-m/fpu/fpv5-d16/crti.o
LOAD c:/program files (x86)/atollic/truestudio for stm32 9.2.0/armtools/bin/../lib/gcc/arm-atollic-eabi/6.3.1/armv7e-m/fpu/fpv5-d16/crtbegin.o
LOAD Drivers\STM32F7xx_HAL_Driver\Src\stm32f7xx_hal.o
LOAD Drivers\STM32F7xx_HAL_Driver\Src\stm32f7xx_hal_can.o
LOAD Drivers\STM32F7xx_HAL_Driver\Src\stm32f7xx_hal_cortex.o
LOAD Drivers\STM32F7xx_HAL_Driver\Src\stm32f7xx_hal_dma.o
LOAD Drivers\STM32F7xx_HAL_Driver\Src\stm32f7xx_hal_dma_ex.o
LOAD Drivers\STM32F7xx_HAL_Driver\Src\stm32f7xx_hal_exti.o
LOAD Drivers\STM32F7xx_HAL_Driver\Src\stm32f7xx_hal_flash.o
LOAD Drivers\STM32F7xx_HAL_Driver\Src\stm32f7xx_hal_flash_ex.o
LOAD Drivers\STM32F7xx_HAL_Driver\Src\stm32f7xx_hal_gpio.o
LOAD Drivers\STM32F7xx_HAL_Driver\Src\stm32f7xx_hal_i2c.o
LOAD Drivers\STM32F7xx_HAL_Driver\Src\stm32f7xx_hal_i2c_ex.o
LOAD Drivers\STM32F7xx_HAL_Driver\Src\stm32f7xx_hal_pwr.o
LOAD Drivers\STM32F7xx_HAL_Driver\Src\stm32f7xx_hal_pwr_ex.o
LOAD Drivers\STM32F7xx_HAL_Driver\Src\stm32f7xx_hal_rcc.o
LOAD Drivers\STM32F7xx_HAL_Driver\Src\stm32f7xx_hal_rcc_ex.o
LOAD Drivers\STM32F7xx_HAL_Driver\Src\stm32f7xx_hal_rtc.o
LOAD Drivers\STM32F7xx_HAL_Driver\Src\stm32f7xx_hal_rtc_ex.o
LOAD Drivers\STM32F7xx_HAL_Driver\Src\stm32f7xx_hal_sd.o
LOAD Drivers\STM32F7xx_HAL_Driver\Src\stm32f7xx_hal_tim.o
LOAD Drivers\STM32F7xx_HAL_Driver\Src\stm32f7xx_hal_tim_ex.o
LOAD Drivers\STM32F7xx_HAL_Driver\Src\stm32f7xx_hal_uart.o
LOAD Drivers\STM32F7xx_HAL_Driver\Src\stm32f7xx_ll_sdmmc.o
LOAD Middlewares\Third_Party\FatFs\src\diskio.o
LOAD Middlewares\Third_Party\FatFs\src\ff.o
LOAD Middlewares\Third_Party\FatFs\src\ff_gen_drv.o
LOAD Middlewares\Third_Party\FatFs\src\option\ccsbcs.o
LOAD Middlewares\Third_Party\FatFs\src\option\syscall.o
LOAD Src\bsp_driver_sd.o
LOAD Src\can.o
LOAD Src\dma.o
LOAD Src\fatfs.o
LOAD Src\gfxsimulator.o
LOAD Src\gpio.o
LOAD Src\main.o
LOAD Src\rtc.o
LOAD Src\sd_diskio.o
LOAD Src\sdmmc.o
LOAD Src\stm32f7xx_hal_msp.o
LOAD Src\stm32f7xx_it.o
LOAD Src\syscalls.o
LOAD Src\system_stm32f7xx.o
LOAD Src\usart.o
LOAD Src\user\action_scheduler.o
LOAD Src\user\can_receiver.o
LOAD Src\user\can_transceiver_driver.o
LOAD Src\user\config.o
LOAD Src\user\data_saver.o
LOAD Src\user\do_driver.o
LOAD Src\user\fifo_queue.o
LOAD Src\user\fifo_queue_multiread.o
LOAD Src\user\file_reading_buffer.o
LOAD Src\user\file_system_wrapper.o
LOAD Src\user\file_writing_buffer.o
LOAD Src\user\fixed_point.o
LOAD Src\user\led_driver.o
LOAD Src\user\ms_timer_driver.o
LOAD Src\user\rtc_driver.o
LOAD Src\user\sim28_gps_driver.o
LOAD Src\user\string_operations.o
LOAD Src\user\uart_driver.o
LOAD Src\user\uart_receiver_start_length.o
LOAD Src\user\uart_receiver_start_term.o
LOAD Src\user\ublox_m8_gps_driver.o
LOAD startup\startup_stm32f767xx.o
                0x00000080                malloc_getpagesize_P = 0x80
START GROUP
LOAD c:/program files (x86)/atollic/truestudio for stm32 9.2.0/armtools/bin/../lib/gcc/arm-atollic-eabi/6.3.1/../../../../arm-atollic-eabi/lib/armv7e-m/fpu/fpv5-d16\libc_nano.a
LOAD c:/program files (x86)/atollic/truestudio for stm32 9.2.0/armtools/bin/../lib/gcc/arm-atollic-eabi/6.3.1/../../../../arm-atollic-eabi/lib/armv7e-m/fpu/fpv5-d16\libm.a
END GROUP
START GROUP
LOAD c:/program files (x86)/atollic/truestudio for stm32 9.2.0/armtools/bin/../lib/gcc/arm-atollic-eabi/6.3.1/armv7e-m/fpu/fpv5-d16\libgcc.a
LOAD c:/program files (x86)/atollic/truestudio for stm32 9.2.0/armtools/bin/../lib/gcc/arm-atollic-eabi/6.3.1/../../../../arm-atollic-eabi/lib/armv7e-m/fpu/fpv5-d16\libc_nano.a
END GROUP
START GROUP
LOAD c:/program files (x86)/atollic/truestudio for stm32 9.2.0/armtools/bin/../lib/gcc/arm-atollic-eabi/6.3.1/armv7e-m/fpu/fpv5-d16\libgcc.a
LOAD c:/program files (x86)/atollic/truestudio for stm32 9.2.0/armtools/bin/../lib/gcc/arm-atollic-eabi/6.3.1/../../../../arm-atollic-eabi/lib/armv7e-m/fpu/fpv5-d16\libc_nano.a
LOAD c:/program files (x86)/atollic/truestudio for stm32 9.2.0/armtools/bin/../lib/gcc/arm-atollic-eabi/6.3.1/../../../../arm-atollic-eabi/lib/armv7e-m/fpu/fpv5-d16\libnosys.a
END GROUP
START GROUP
LOAD c:/program files (x86)/atollic/truestudio for stm32 9.2.0/armtools/bin/../lib/gcc/arm-atollic-eabi/6.3.1/armv7e-m/fpu/fpv5-d16\libgcc.a
LOAD c:/program files (x86)/atollic/truestudio for stm32 9.2.0/armtools/bin/../lib/gcc/arm-atollic-eabi/6.3.1/../../../../arm-atollic-eabi/lib/armv7e-m/fpu/fpv5-d16\libc_nano.a
LOAD c:/program files (x86)/atollic/truestudio for stm32 9.2.0/armtools/bin/../lib/gcc/arm-atollic-eabi/6.3.1/../../../../arm-atollic-eabi/lib/armv7e-m/fpu/fpv5-d16\libnosys.a
END GROUP
LOAD c:/program files (x86)/atollic/truestudio for stm32 9.2.0/armtools/bin/../lib/gcc/arm-atollic-eabi/6.3.1/armv7e-m/fpu/fpv5-d16/crtend.o
LOAD c:/program files (x86)/atollic/truestudio for stm32 9.2.0/armtools/bin/../lib/gcc/arm-atollic-eabi/6.3.1/armv7e-m/fpu/fpv5-d16/crtn.o
                0x20080000                _estack = 0x20080000
                0x00000200                _Min_Heap_Size = 0x200
                0x00060000                _Min_Stack_Size = 0x60000

.isr_vector     0x08000000      0x1f8
                0x08000000                . = ALIGN (0x4)
 *(.isr_vector)
 .isr_vector    0x08000000      0x1f8 startup\startup_stm32f767xx.o
                0x08000000                g_pfnVectors
                0x080001f8                . = ALIGN (0x4)

.text           0x08000200    0x10eb4
                0x08000200                . = ALIGN (0x4)
 *(.text)
 .text          0x08000200       0x40 c:/program files (x86)/atollic/truestudio for stm32 9.2.0/armtools/bin/../lib/gcc/arm-atollic-eabi/6.3.1/armv7e-m/fpu/fpv5-d16/crtbegin.o
 .text          0x08000240       0x10 c:/program files (x86)/atollic/truestudio for stm32 9.2.0/armtools/bin/../lib/gcc/arm-atollic-eabi/6.3.1/../../../../arm-atollic-eabi/lib/armv7e-m/fpu/fpv5-d16\libc_nano.a(lib_a-strlen.o)
                0x08000240                strlen
 .text          0x08000250       0xa0 c:/program files (x86)/atollic/truestudio for stm32 9.2.0/armtools/bin/../lib/gcc/arm-atollic-eabi/6.3.1/../../../../arm-atollic-eabi/lib/armv7e-m/fpu/fpv5-d16\libc_nano.a(lib_a-memchr.o)
                0x08000250                memchr
 .text          0x080002f0       0x30 c:/program files (x86)/atollic/truestudio for stm32 9.2.0/armtools/bin/../lib/gcc/arm-atollic-eabi/6.3.1/armv7e-m/fpu/fpv5-d16\libgcc.a(_aeabi_uldivmod.o)
                0x080002f0                __aeabi_uldivmod
 .text          0x08000320      0x2dc c:/program files (x86)/atollic/truestudio for stm32 9.2.0/armtools/bin/../lib/gcc/arm-atollic-eabi/6.3.1/armv7e-m/fpu/fpv5-d16\libgcc.a(_udivmoddi4.o)
                0x08000320                __udivmoddi4
 .text          0x080005fc        0x4 c:/program files (x86)/atollic/truestudio for stm32 9.2.0/armtools/bin/../lib/gcc/arm-atollic-eabi/6.3.1/armv7e-m/fpu/fpv5-d16\libgcc.a(_dvmd_tls.o)
                0x080005fc                __aeabi_idiv0
                0x080005fc                __aeabi_ldiv0
 *(.text*)
 .text.HAL_Init
                0x08000600       0x1a Drivers\STM32F7xx_HAL_Driver\Src\stm32f7xx_hal.o
                0x08000600                HAL_Init
 *fill*         0x0800061a        0x2 
 .text.HAL_InitTick
                0x0800061c       0x60 Drivers\STM32F7xx_HAL_Driver\Src\stm32f7xx_hal.o
                0x0800061c                HAL_InitTick
 .text.HAL_IncTick
                0x0800067c       0x28 Drivers\STM32F7xx_HAL_Driver\Src\stm32f7xx_hal.o
                0x0800067c                HAL_IncTick
 .text.HAL_GetTick
                0x080006a4       0x18 Drivers\STM32F7xx_HAL_Driver\Src\stm32f7xx_hal.o
                0x080006a4                HAL_GetTick
 .text.HAL_Delay
                0x080006bc       0x44 Drivers\STM32F7xx_HAL_Driver\Src\stm32f7xx_hal.o
                0x080006bc                HAL_Delay
 .text.HAL_CAN_Init
                0x08000700      0x1f4 Drivers\STM32F7xx_HAL_Driver\Src\stm32f7xx_hal_can.o
                0x08000700                HAL_CAN_Init
 .text.HAL_CAN_ConfigFilter
                0x080008f4      0x1d8 Drivers\STM32F7xx_HAL_Driver\Src\stm32f7xx_hal_can.o
                0x080008f4                HAL_CAN_ConfigFilter
 .text.HAL_CAN_Start
                0x08000acc       0x88 Drivers\STM32F7xx_HAL_Driver\Src\stm32f7xx_hal_can.o
                0x08000acc                HAL_CAN_Start
 .text.HAL_CAN_GetRxMessage
                0x08000b54      0x226 Drivers\STM32F7xx_HAL_Driver\Src\stm32f7xx_hal_can.o
                0x08000b54                HAL_CAN_GetRxMessage
 .text.HAL_CAN_ActivateNotification
                0x08000d7a       0x4c Drivers\STM32F7xx_HAL_Driver\Src\stm32f7xx_hal_can.o
                0x08000d7a                HAL_CAN_ActivateNotification
 .text.HAL_CAN_IRQHandler
                0x08000dc6      0x362 Drivers\STM32F7xx_HAL_Driver\Src\stm32f7xx_hal_can.o
                0x08000dc6                HAL_CAN_IRQHandler
 .text.HAL_CAN_TxMailbox0CompleteCallback
                0x08001128       0x14 Drivers\STM32F7xx_HAL_Driver\Src\stm32f7xx_hal_can.o
                0x08001128                HAL_CAN_TxMailbox0CompleteCallback
 .text.HAL_CAN_TxMailbox1CompleteCallback
                0x0800113c       0x14 Drivers\STM32F7xx_HAL_Driver\Src\stm32f7xx_hal_can.o
                0x0800113c                HAL_CAN_TxMailbox1CompleteCallback
 .text.HAL_CAN_TxMailbox2CompleteCallback
                0x08001150       0x14 Drivers\STM32F7xx_HAL_Driver\Src\stm32f7xx_hal_can.o
                0x08001150                HAL_CAN_TxMailbox2CompleteCallback
 .text.HAL_CAN_TxMailbox0AbortCallback
                0x08001164       0x14 Drivers\STM32F7xx_HAL_Driver\Src\stm32f7xx_hal_can.o
                0x08001164                HAL_CAN_TxMailbox0AbortCallback
 .text.HAL_CAN_TxMailbox1AbortCallback
                0x08001178       0x14 Drivers\STM32F7xx_HAL_Driver\Src\stm32f7xx_hal_can.o
                0x08001178                HAL_CAN_TxMailbox1AbortCallback
 .text.HAL_CAN_TxMailbox2AbortCallback
                0x0800118c       0x14 Drivers\STM32F7xx_HAL_Driver\Src\stm32f7xx_hal_can.o
                0x0800118c                HAL_CAN_TxMailbox2AbortCallback
 .text.HAL_CAN_RxFifo0FullCallback
                0x080011a0       0x14 Drivers\STM32F7xx_HAL_Driver\Src\stm32f7xx_hal_can.o
                0x080011a0                HAL_CAN_RxFifo0FullCallback
 .text.HAL_CAN_RxFifo1FullCallback
                0x080011b4       0x14 Drivers\STM32F7xx_HAL_Driver\Src\stm32f7xx_hal_can.o
                0x080011b4                HAL_CAN_RxFifo1FullCallback
 .text.HAL_CAN_SleepCallback
                0x080011c8       0x14 Drivers\STM32F7xx_HAL_Driver\Src\stm32f7xx_hal_can.o
                0x080011c8                HAL_CAN_SleepCallback
 .text.HAL_CAN_WakeUpFromRxMsgCallback
                0x080011dc       0x14 Drivers\STM32F7xx_HAL_Driver\Src\stm32f7xx_hal_can.o
                0x080011dc                HAL_CAN_WakeUpFromRxMsgCallback
 .text.HAL_CAN_GetError
                0x080011f0       0x18 Drivers\STM32F7xx_HAL_Driver\Src\stm32f7xx_hal_can.o
                0x080011f0                HAL_CAN_GetError
 .text.HAL_CAN_ResetError
                0x08001208       0x46 Drivers\STM32F7xx_HAL_Driver\Src\stm32f7xx_hal_can.o
                0x08001208                HAL_CAN_ResetError
 *fill*         0x0800124e        0x2 
 .text.__NVIC_SetPriorityGrouping
                0x08001250       0x48 Drivers\STM32F7xx_HAL_Driver\Src\stm32f7xx_hal_cortex.o
 .text.__NVIC_GetPriorityGrouping
                0x08001298       0x1c Drivers\STM32F7xx_HAL_Driver\Src\stm32f7xx_hal_cortex.o
 .text.__NVIC_EnableIRQ
                0x080012b4       0x3c Drivers\STM32F7xx_HAL_Driver\Src\stm32f7xx_hal_cortex.o
 .text.__NVIC_SetPriority
                0x080012f0       0x54 Drivers\STM32F7xx_HAL_Driver\Src\stm32f7xx_hal_cortex.o
 .text.NVIC_EncodePriority
                0x08001344       0x62 Drivers\STM32F7xx_HAL_Driver\Src\stm32f7xx_hal_cortex.o
 *fill*         0x080013a6        0x2 
 .text.SysTick_Config
                0x080013a8       0x44 Drivers\STM32F7xx_HAL_Driver\Src\stm32f7xx_hal_cortex.o
 .text.HAL_NVIC_SetPriorityGrouping
                0x080013ec       0x16 Drivers\STM32F7xx_HAL_Driver\Src\stm32f7xx_hal_cortex.o
                0x080013ec                HAL_NVIC_SetPriorityGrouping
 .text.HAL_NVIC_SetPriority
                0x08001402       0x38 Drivers\STM32F7xx_HAL_Driver\Src\stm32f7xx_hal_cortex.o
                0x08001402                HAL_NVIC_SetPriority
 .text.HAL_NVIC_EnableIRQ
                0x0800143a       0x1c Drivers\STM32F7xx_HAL_Driver\Src\stm32f7xx_hal_cortex.o
                0x0800143a                HAL_NVIC_EnableIRQ
 .text.HAL_SYSTICK_Config
                0x08001456       0x18 Drivers\STM32F7xx_HAL_Driver\Src\stm32f7xx_hal_cortex.o
                0x08001456                HAL_SYSTICK_Config
 .text.HAL_SYSTICK_IRQHandler
                0x0800146e        0xc Drivers\STM32F7xx_HAL_Driver\Src\stm32f7xx_hal_cortex.o
                0x0800146e                HAL_SYSTICK_IRQHandler
 *fill*         0x0800147a        0x2 
 .text.HAL_DMA_Init
                0x0800147c      0x15c Drivers\STM32F7xx_HAL_Driver\Src\stm32f7xx_hal_dma.o
                0x0800147c                HAL_DMA_Init
 .text.HAL_DMA_Start_IT
                0x080015d8       0xc0 Drivers\STM32F7xx_HAL_Driver\Src\stm32f7xx_hal_dma.o
                0x080015d8                HAL_DMA_Start_IT
 .text.HAL_DMA_Abort_IT
                0x08001698       0x44 Drivers\STM32F7xx_HAL_Driver\Src\stm32f7xx_hal_dma.o
                0x08001698                HAL_DMA_Abort_IT
 .text.HAL_DMA_IRQHandler
                0x080016dc      0x314 Drivers\STM32F7xx_HAL_Driver\Src\stm32f7xx_hal_dma.o
                0x080016dc                HAL_DMA_IRQHandler
 .text.HAL_DMA_GetError
                0x080019f0       0x18 Drivers\STM32F7xx_HAL_Driver\Src\stm32f7xx_hal_dma.o
                0x080019f0                HAL_DMA_GetError
 .text.DMA_SetConfig
                0x08001a08       0x5c Drivers\STM32F7xx_HAL_Driver\Src\stm32f7xx_hal_dma.o
 .text.DMA_CalcBaseAndBitshift
                0x08001a64       0x6c Drivers\STM32F7xx_HAL_Driver\Src\stm32f7xx_hal_dma.o
 .text.DMA_CheckFifoParam
                0x08001ad0       0xf4 Drivers\STM32F7xx_HAL_Driver\Src\stm32f7xx_hal_dma.o
 .text.HAL_GPIO_Init
                0x08001bc4      0x354 Drivers\STM32F7xx_HAL_Driver\Src\stm32f7xx_hal_gpio.o
                0x08001bc4                HAL_GPIO_Init
 .text.HAL_GPIO_WritePin
                0x08001f18       0x32 Drivers\STM32F7xx_HAL_Driver\Src\stm32f7xx_hal_gpio.o
                0x08001f18                HAL_GPIO_WritePin
 *fill*         0x08001f4a        0x2 
 .text.HAL_PWR_EnableBkUpAccess
                0x08001f4c       0x20 Drivers\STM32F7xx_HAL_Driver\Src\stm32f7xx_hal_pwr.o
                0x08001f4c                HAL_PWR_EnableBkUpAccess
 .text.HAL_PWR_DisableBkUpAccess
                0x08001f6c       0x20 Drivers\STM32F7xx_HAL_Driver\Src\stm32f7xx_hal_pwr.o
                0x08001f6c                HAL_PWR_DisableBkUpAccess
 .text.HAL_PWREx_EnableOverDrive
                0x08001f8c       0xa0 Drivers\STM32F7xx_HAL_Driver\Src\stm32f7xx_hal_pwr_ex.o
                0x08001f8c                HAL_PWREx_EnableOverDrive
 .text.HAL_RCC_OscConfig
                0x0800202c      0x4e4 Drivers\STM32F7xx_HAL_Driver\Src\stm32f7xx_hal_rcc.o
                0x0800202c                HAL_RCC_OscConfig
 .text.HAL_RCC_ClockConfig
                0x08002510      0x1d0 Drivers\STM32F7xx_HAL_Driver\Src\stm32f7xx_hal_rcc.o
                0x08002510                HAL_RCC_ClockConfig
 .text.HAL_RCC_GetSysClockFreq
                0x080026e0      0x1ac Drivers\STM32F7xx_HAL_Driver\Src\stm32f7xx_hal_rcc.o
                0x080026e0                HAL_RCC_GetSysClockFreq
 .text.HAL_RCC_GetHCLKFreq
                0x0800288c       0x18 Drivers\STM32F7xx_HAL_Driver\Src\stm32f7xx_hal_rcc.o
                0x0800288c                HAL_RCC_GetHCLKFreq
 .text.HAL_RCC_GetPCLK1Freq
                0x080028a4       0x28 Drivers\STM32F7xx_HAL_Driver\Src\stm32f7xx_hal_rcc.o
                0x080028a4                HAL_RCC_GetPCLK1Freq
 .text.HAL_RCC_GetPCLK2Freq
                0x080028cc       0x28 Drivers\STM32F7xx_HAL_Driver\Src\stm32f7xx_hal_rcc.o
                0x080028cc                HAL_RCC_GetPCLK2Freq
 .text.HAL_RCCEx_PeriphCLKConfig
                0x080028f4      0x84c Drivers\STM32F7xx_HAL_Driver\Src\stm32f7xx_hal_rcc_ex.o
                0x080028f4                HAL_RCCEx_PeriphCLKConfig
 .text.HAL_RTC_Init
                0x08003140       0xf8 Drivers\STM32F7xx_HAL_Driver\Src\stm32f7xx_hal_rtc.o
                0x08003140                HAL_RTC_Init
 .text.HAL_RTC_SetTime
                0x08003238      0x17c Drivers\STM32F7xx_HAL_Driver\Src\stm32f7xx_hal_rtc.o
                0x08003238                HAL_RTC_SetTime
 .text.HAL_RTC_GetTime
                0x080033b4       0xbc Drivers\STM32F7xx_HAL_Driver\Src\stm32f7xx_hal_rtc.o
                0x080033b4                HAL_RTC_GetTime
 .text.HAL_RTC_SetDate
                0x08003470      0x150 Drivers\STM32F7xx_HAL_Driver\Src\stm32f7xx_hal_rtc.o
                0x08003470                HAL_RTC_SetDate
 .text.HAL_RTC_GetDate
                0x080035c0       0xa0 Drivers\STM32F7xx_HAL_Driver\Src\stm32f7xx_hal_rtc.o
                0x080035c0                HAL_RTC_GetDate
 .text.HAL_RTC_WaitForSynchro
                0x08003660       0x50 Drivers\STM32F7xx_HAL_Driver\Src\stm32f7xx_hal_rtc.o
                0x08003660                HAL_RTC_WaitForSynchro
 .text.RTC_EnterInitMode
                0x080036b0       0x58 Drivers\STM32F7xx_HAL_Driver\Src\stm32f7xx_hal_rtc.o
                0x080036b0                RTC_EnterInitMode
 .text.RTC_ByteToBcd2
                0x08003708       0x3c Drivers\STM32F7xx_HAL_Driver\Src\stm32f7xx_hal_rtc.o
                0x08003708                RTC_ByteToBcd2
 .text.RTC_Bcd2ToByte
                0x08003744       0x3c Drivers\STM32F7xx_HAL_Driver\Src\stm32f7xx_hal_rtc.o
                0x08003744                RTC_Bcd2ToByte
 .text.HAL_RTCEx_BKUPWrite
                0x08003780       0x34 Drivers\STM32F7xx_HAL_Driver\Src\stm32f7xx_hal_rtc_ex.o
                0x08003780                HAL_RTCEx_BKUPWrite
 .text.HAL_RTCEx_BKUPRead
                0x080037b4       0x30 Drivers\STM32F7xx_HAL_Driver\Src\stm32f7xx_hal_rtc_ex.o
                0x080037b4                HAL_RTCEx_BKUPRead
 .text.HAL_SD_Init
                0x080037e4       0x56 Drivers\STM32F7xx_HAL_Driver\Src\stm32f7xx_hal_sd.o
                0x080037e4                HAL_SD_Init
 .text.HAL_SD_InitCard
                0x0800383a       0xc8 Drivers\STM32F7xx_HAL_Driver\Src\stm32f7xx_hal_sd.o
                0x0800383a                HAL_SD_InitCard
 *fill*         0x08003902        0x2 
 .text.HAL_SD_ReadBlocks_DMA
                0x08003904      0x19c Drivers\STM32F7xx_HAL_Driver\Src\stm32f7xx_hal_sd.o
                0x08003904                HAL_SD_ReadBlocks_DMA
 .text.HAL_SD_WriteBlocks_DMA
                0x08003aa0      0x19c Drivers\STM32F7xx_HAL_Driver\Src\stm32f7xx_hal_sd.o
                0x08003aa0                HAL_SD_WriteBlocks_DMA
 .text.HAL_SD_IRQHandler
                0x08003c3c      0x2a8 Drivers\STM32F7xx_HAL_Driver\Src\stm32f7xx_hal_sd.o
                0x08003c3c                HAL_SD_IRQHandler
 .text.HAL_SD_ErrorCallback
                0x08003ee4       0x14 Drivers\STM32F7xx_HAL_Driver\Src\stm32f7xx_hal_sd.o
                0x08003ee4                HAL_SD_ErrorCallback
 .text.HAL_SD_GetCardCSD
                0x08003ef8      0x456 Drivers\STM32F7xx_HAL_Driver\Src\stm32f7xx_hal_sd.o
                0x08003ef8                HAL_SD_GetCardCSD
 .text.HAL_SD_GetCardInfo
                0x0800434e       0x58 Drivers\STM32F7xx_HAL_Driver\Src\stm32f7xx_hal_sd.o
                0x0800434e                HAL_SD_GetCardInfo
 .text.HAL_SD_GetCardState
                0x080043a6       0x4a Drivers\STM32F7xx_HAL_Driver\Src\stm32f7xx_hal_sd.o
                0x080043a6                HAL_SD_GetCardState
 .text.SD_DMATransmitCplt
                0x080043f0       0x2a Drivers\STM32F7xx_HAL_Driver\Src\stm32f7xx_hal_sd.o
 .text.SD_DMAReceiveCplt
                0x0800441a       0x6e Drivers\STM32F7xx_HAL_Driver\Src\stm32f7xx_hal_sd.o
 .text.SD_DMAError
                0x08004488       0x96 Drivers\STM32F7xx_HAL_Driver\Src\stm32f7xx_hal_sd.o
 .text.SD_DMATxAbort
                0x0800451e       0x7c Drivers\STM32F7xx_HAL_Driver\Src\stm32f7xx_hal_sd.o
 .text.SD_DMARxAbort
                0x0800459a       0x7c Drivers\STM32F7xx_HAL_Driver\Src\stm32f7xx_hal_sd.o
 .text.SD_InitCard
                0x08004616      0x192 Drivers\STM32F7xx_HAL_Driver\Src\stm32f7xx_hal_sd.o
 .text.SD_PowerON
                0x080047a8      0x150 Drivers\STM32F7xx_HAL_Driver\Src\stm32f7xx_hal_sd.o
 .text.SD_SendStatus
                0x080048f8       0x54 Drivers\STM32F7xx_HAL_Driver\Src\stm32f7xx_hal_sd.o
 .text.SD_Read_IT
                0x0800494c       0x50 Drivers\STM32F7xx_HAL_Driver\Src\stm32f7xx_hal_sd.o
 .text.SD_Write_IT
                0x0800499c       0x4c Drivers\STM32F7xx_HAL_Driver\Src\stm32f7xx_hal_sd.o
 .text.HAL_UART_Init
                0x080049e8       0x9c Drivers\STM32F7xx_HAL_Driver\Src\stm32f7xx_hal_uart.o
                0x080049e8                HAL_UART_Init
 .text.HAL_UART_Receive_IT
                0x08004a84      0x144 Drivers\STM32F7xx_HAL_Driver\Src\stm32f7xx_hal_uart.o
                0x08004a84                HAL_UART_Receive_IT
 .text.HAL_UART_Transmit_DMA
                0x08004bc8       0xf8 Drivers\STM32F7xx_HAL_Driver\Src\stm32f7xx_hal_uart.o
                0x08004bc8                HAL_UART_Transmit_DMA
 .text.HAL_UART_IRQHandler
                0x08004cc0      0x238 Drivers\STM32F7xx_HAL_Driver\Src\stm32f7xx_hal_uart.o
                0x08004cc0                HAL_UART_IRQHandler
 .text.HAL_UART_TxHalfCpltCallback
                0x08004ef8       0x14 Drivers\STM32F7xx_HAL_Driver\Src\stm32f7xx_hal_uart.o
                0x08004ef8                HAL_UART_TxHalfCpltCallback
 .text.HAL_UART_GetState
                0x08004f0c       0x26 Drivers\STM32F7xx_HAL_Driver\Src\stm32f7xx_hal_uart.o
                0x08004f0c                HAL_UART_GetState
 *fill*         0x08004f32        0x2 
 .text.UART_SetConfig
                0x08004f34      0x548 Drivers\STM32F7xx_HAL_Driver\Src\stm32f7xx_hal_uart.o
                0x08004f34                UART_SetConfig
 .text.UART_AdvFeatureConfig
                0x0800547c      0x144 Drivers\STM32F7xx_HAL_Driver\Src\stm32f7xx_hal_uart.o
                0x0800547c                UART_AdvFeatureConfig
 .text.UART_CheckIdleState
                0x080055c0       0x5e Drivers\STM32F7xx_HAL_Driver\Src\stm32f7xx_hal_uart.o
                0x080055c0                UART_CheckIdleState
 .text.UART_WaitOnFlagUntilTimeout
                0x0800561e       0x90 Drivers\STM32F7xx_HAL_Driver\Src\stm32f7xx_hal_uart.o
                0x0800561e                UART_WaitOnFlagUntilTimeout
 .text.UART_EndTxTransfer
                0x080056ae       0x2a Drivers\STM32F7xx_HAL_Driver\Src\stm32f7xx_hal_uart.o
 .text.UART_EndRxTransfer
                0x080056d8       0x40 Drivers\STM32F7xx_HAL_Driver\Src\stm32f7xx_hal_uart.o
 .text.UART_DMATransmitCplt
                0x08005718       0x50 Drivers\STM32F7xx_HAL_Driver\Src\stm32f7xx_hal_uart.o
 .text.UART_DMATxHalfCplt
                0x08005768       0x1c Drivers\STM32F7xx_HAL_Driver\Src\stm32f7xx_hal_uart.o
 .text.UART_DMAError
                0x08005784       0x78 Drivers\STM32F7xx_HAL_Driver\Src\stm32f7xx_hal_uart.o
 .text.UART_DMAAbortOnError
                0x080057fc       0x2c Drivers\STM32F7xx_HAL_Driver\Src\stm32f7xx_hal_uart.o
 .text.UART_EndTransmit_IT
                0x08005828       0x32 Drivers\STM32F7xx_HAL_Driver\Src\stm32f7xx_hal_uart.o
 .text.UART_RxISR_8BIT
                0x0800585a       0xa6 Drivers\STM32F7xx_HAL_Driver\Src\stm32f7xx_hal_uart.o
 .text.UART_RxISR_16BIT
                0x08005900       0xa6 Drivers\STM32F7xx_HAL_Driver\Src\stm32f7xx_hal_uart.o
 *fill*         0x080059a6        0x2 
 .text.SDMMC_Init
                0x080059a8       0x58 Drivers\STM32F7xx_HAL_Driver\Src\stm32f7xx_ll_sdmmc.o
                0x080059a8                SDMMC_Init
 .text.SDMMC_ReadFIFO
                0x08005a00       0x1a Drivers\STM32F7xx_HAL_Driver\Src\stm32f7xx_ll_sdmmc.o
                0x08005a00                SDMMC_ReadFIFO
 .text.SDMMC_WriteFIFO
                0x08005a1a       0x22 Drivers\STM32F7xx_HAL_Driver\Src\stm32f7xx_ll_sdmmc.o
                0x08005a1a                SDMMC_WriteFIFO
 .text.SDMMC_PowerState_ON
                0x08005a3c       0x1c Drivers\STM32F7xx_HAL_Driver\Src\stm32f7xx_ll_sdmmc.o
                0x08005a3c                SDMMC_PowerState_ON
 .text.SDMMC_GetPowerState
                0x08005a58       0x1c Drivers\STM32F7xx_HAL_Driver\Src\stm32f7xx_ll_sdmmc.o
                0x08005a58                SDMMC_GetPowerState
 .text.SDMMC_SendCommand
                0x08005a74       0x54 Drivers\STM32F7xx_HAL_Driver\Src\stm32f7xx_ll_sdmmc.o
                0x08005a74                SDMMC_SendCommand
 .text.SDMMC_GetCommandResponse
                0x08005ac8       0x1a Drivers\STM32F7xx_HAL_Driver\Src\stm32f7xx_ll_sdmmc.o
                0x08005ac8                SDMMC_GetCommandResponse
 .text.SDMMC_GetResponse
                0x08005ae2       0x2a Drivers\STM32F7xx_HAL_Driver\Src\stm32f7xx_ll_sdmmc.o
                0x08005ae2                SDMMC_GetResponse
 .text.SDMMC_ConfigData
                0x08005b0c       0x58 Drivers\STM32F7xx_HAL_Driver\Src\stm32f7xx_ll_sdmmc.o
                0x08005b0c                SDMMC_ConfigData
 .text.SDMMC_CmdBlockLength
                0x08005b64       0x48 Drivers\STM32F7xx_HAL_Driver\Src\stm32f7xx_ll_sdmmc.o
                0x08005b64                SDMMC_CmdBlockLength
 .text.SDMMC_CmdReadSingleBlock
                0x08005bac       0x48 Drivers\STM32F7xx_HAL_Driver\Src\stm32f7xx_ll_sdmmc.o
                0x08005bac                SDMMC_CmdReadSingleBlock
 .text.SDMMC_CmdReadMultiBlock
                0x08005bf4       0x48 Drivers\STM32F7xx_HAL_Driver\Src\stm32f7xx_ll_sdmmc.o
                0x08005bf4                SDMMC_CmdReadMultiBlock
 .text.SDMMC_CmdWriteSingleBlock
                0x08005c3c       0x48 Drivers\STM32F7xx_HAL_Driver\Src\stm32f7xx_ll_sdmmc.o
                0x08005c3c                SDMMC_CmdWriteSingleBlock
 .text.SDMMC_CmdWriteMultiBlock
                0x08005c84       0x48 Drivers\STM32F7xx_HAL_Driver\Src\stm32f7xx_ll_sdmmc.o
                0x08005c84                SDMMC_CmdWriteMultiBlock
 .text.SDMMC_CmdStopTransfer
                0x08005ccc       0x48 Drivers\STM32F7xx_HAL_Driver\Src\stm32f7xx_ll_sdmmc.o
                0x08005ccc                SDMMC_CmdStopTransfer
 .text.SDMMC_CmdSelDesel
                0x08005d14       0x4a Drivers\STM32F7xx_HAL_Driver\Src\stm32f7xx_ll_sdmmc.o
                0x08005d14                SDMMC_CmdSelDesel
 .text.SDMMC_CmdGoIdleState
                0x08005d5e       0x40 Drivers\STM32F7xx_HAL_Driver\Src\stm32f7xx_ll_sdmmc.o
                0x08005d5e                SDMMC_CmdGoIdleState
 .text.SDMMC_CmdOperCond
                0x08005d9e       0x42 Drivers\STM32F7xx_HAL_Driver\Src\stm32f7xx_ll_sdmmc.o
                0x08005d9e                SDMMC_CmdOperCond
 .text.SDMMC_CmdAppCommand
                0x08005de0       0x48 Drivers\STM32F7xx_HAL_Driver\Src\stm32f7xx_ll_sdmmc.o
                0x08005de0                SDMMC_CmdAppCommand
 .text.SDMMC_CmdAppOperCommand
                0x08005e28       0x4c Drivers\STM32F7xx_HAL_Driver\Src\stm32f7xx_ll_sdmmc.o
                0x08005e28                SDMMC_CmdAppOperCommand
 .text.SDMMC_CmdSendCID
                0x08005e74       0x40 Drivers\STM32F7xx_HAL_Driver\Src\stm32f7xx_ll_sdmmc.o
                0x08005e74                SDMMC_CmdSendCID
 .text.SDMMC_CmdSendCSD
                0x08005eb4       0x42 Drivers\STM32F7xx_HAL_Driver\Src\stm32f7xx_ll_sdmmc.o
                0x08005eb4                SDMMC_CmdSendCSD
 .text.SDMMC_CmdSetRelAdd
                0x08005ef6       0x46 Drivers\STM32F7xx_HAL_Driver\Src\stm32f7xx_ll_sdmmc.o
                0x08005ef6                SDMMC_CmdSetRelAdd
 .text.SDMMC_CmdSendStatus
                0x08005f3c       0x48 Drivers\STM32F7xx_HAL_Driver\Src\stm32f7xx_ll_sdmmc.o
                0x08005f3c                SDMMC_CmdSendStatus
 .text.SDMMC_GetCmdError
                0x08005f84       0x54 Drivers\STM32F7xx_HAL_Driver\Src\stm32f7xx_ll_sdmmc.o
 .text.SDMMC_GetCmdResp1
                0x08005fd8      0x1cc Drivers\STM32F7xx_HAL_Driver\Src\stm32f7xx_ll_sdmmc.o
 .text.SDMMC_GetCmdResp2
                0x080061a4       0x80 Drivers\STM32F7xx_HAL_Driver\Src\stm32f7xx_ll_sdmmc.o
 .text.SDMMC_GetCmdResp3
                0x08006224       0x68 Drivers\STM32F7xx_HAL_Driver\Src\stm32f7xx_ll_sdmmc.o
 .text.SDMMC_GetCmdResp6
                0x0800628c       0xdc Drivers\STM32F7xx_HAL_Driver\Src\stm32f7xx_ll_sdmmc.o
 .text.SDMMC_GetCmdResp7
                0x08006368       0x74 Drivers\STM32F7xx_HAL_Driver\Src\stm32f7xx_ll_sdmmc.o
 .text.disk_status
                0x080063dc       0x34 Middlewares\Third_Party\FatFs\src\diskio.o
                0x080063dc                disk_status
 .text.disk_initialize
                0x08006410       0x4c Middlewares\Third_Party\FatFs\src\diskio.o
                0x08006410                disk_initialize
 .text.disk_read
                0x0800645c       0x40 Middlewares\Third_Party\FatFs\src\diskio.o
                0x0800645c                disk_read
 .text.disk_write
                0x0800649c       0x40 Middlewares\Third_Party\FatFs\src\diskio.o
                0x0800649c                disk_write
 .text.disk_ioctl
                0x080064dc       0x3c Middlewares\Third_Party\FatFs\src\diskio.o
                0x080064dc                disk_ioctl
 .text.ld_word  0x08006518       0x30 Middlewares\Third_Party\FatFs\src\ff.o
 .text.ld_dword
                0x08006548       0x46 Middlewares\Third_Party\FatFs\src\ff.o
 .text.st_word  0x0800658e       0x36 Middlewares\Third_Party\FatFs\src\ff.o
 .text.st_dword
                0x080065c4       0x58 Middlewares\Third_Party\FatFs\src\ff.o
 .text.mem_cpy  0x0800661c       0x42 Middlewares\Third_Party\FatFs\src\ff.o
 .text.mem_set  0x0800665e       0x34 Middlewares\Third_Party\FatFs\src\ff.o
 .text.mem_cmp  0x08006692       0x4e Middlewares\Third_Party\FatFs\src\ff.o
 .text.chk_chr  0x080066e0       0x36 Middlewares\Third_Party\FatFs\src\ff.o
 *fill*         0x08006716        0x2 
 .text.chk_lock
                0x08006718       0xb8 Middlewares\Third_Party\FatFs\src\ff.o
 .text.enq_lock
                0x080067d0       0x44 Middlewares\Third_Party\FatFs\src\ff.o
 .text.inc_lock
                0x08006814      0x11c Middlewares\Third_Party\FatFs\src\ff.o
 .text.dec_lock
                0x08006930       0x78 Middlewares\Third_Party\FatFs\src\ff.o
 .text.clear_lock
                0x080069a8       0x48 Middlewares\Third_Party\FatFs\src\ff.o
 .text.sync_window
                0x080069f0       0x88 Middlewares\Third_Party\FatFs\src\ff.o
 .text.move_window
                0x08006a78       0x5a Middlewares\Third_Party\FatFs\src\ff.o
 *fill*         0x08006ad2        0x2 
 .text.sync_fs  0x08006ad4       0xdc Middlewares\Third_Party\FatFs\src\ff.o
 .text.clust2sect
                0x08006bb0       0x3e Middlewares\Third_Party\FatFs\src\ff.o
 .text.get_fat  0x08006bee      0x14a Middlewares\Third_Party\FatFs\src\ff.o
 .text.put_fat  0x08006d38      0x1ce Middlewares\Third_Party\FatFs\src\ff.o
 .text.remove_chain
                0x08006f06       0xca Middlewares\Third_Party\FatFs\src\ff.o
 .text.create_chain
                0x08006fd0      0x130 Middlewares\Third_Party\FatFs\src\ff.o
 .text.clmt_clust
                0x08007100       0x68 Middlewares\Third_Party\FatFs\src\ff.o
 .text.dir_sdi  0x08007168       0xf6 Middlewares\Third_Party\FatFs\src\ff.o
 .text.dir_next
                0x0800725e      0x18a Middlewares\Third_Party\FatFs\src\ff.o
 .text.dir_alloc
                0x080073e8       0x8e Middlewares\Third_Party\FatFs\src\ff.o
 .text.ld_clust
                0x08007476       0x3e Middlewares\Third_Party\FatFs\src\ff.o
 .text.st_clust
                0x080074b4       0x40 Middlewares\Third_Party\FatFs\src\ff.o
 .text.cmp_lfn  0x080074f4       0xe0 Middlewares\Third_Party\FatFs\src\ff.o
 .text.put_lfn  0x080075d4       0xd0 Middlewares\Third_Party\FatFs\src\ff.o
 .text.gen_numname
                0x080076a4      0x11c Middlewares\Third_Party\FatFs\src\ff.o
 .text.sum_sfn  0x080077c0       0x42 Middlewares\Third_Party\FatFs\src\ff.o
 .text.dir_find
                0x08007802      0x180 Middlewares\Third_Party\FatFs\src\ff.o
 *fill*         0x08007982        0x2 
 .text.dir_register
                0x08007984      0x1f0 Middlewares\Third_Party\FatFs\src\ff.o
 .text.create_name
                0x08007b74      0x370 Middlewares\Third_Party\FatFs\src\ff.o
 .text.follow_path
                0x08007ee4       0xe2 Middlewares\Third_Party\FatFs\src\ff.o
 .text.get_ldnumber
                0x08007fc6       0x88 Middlewares\Third_Party\FatFs\src\ff.o
 *fill*         0x0800804e        0x2 
 .text.check_fs
                0x08008050       0xac Middlewares\Third_Party\FatFs\src\ff.o
 .text.find_volume
                0x080080fc      0x4a4 Middlewares\Third_Party\FatFs\src\ff.o
 .text.validate
                0x080085a0       0x6a Middlewares\Third_Party\FatFs\src\ff.o
 *fill*         0x0800860a        0x2 
 .text.f_mount  0x0800860c       0x8c Middlewares\Third_Party\FatFs\src\ff.o
                0x0800860c                f_mount
 .text.f_open   0x08008698      0x34a Middlewares\Third_Party\FatFs\src\ff.o
                0x08008698                f_open
 .text.f_read   0x080089e2      0x232 Middlewares\Third_Party\FatFs\src\ff.o
                0x080089e2                f_read
 .text.f_write  0x08008c14      0x2d2 Middlewares\Third_Party\FatFs\src\ff.o
                0x08008c14                f_write
 .text.f_sync   0x08008ee6       0xc6 Middlewares\Third_Party\FatFs\src\ff.o
                0x08008ee6                f_sync
 .text.f_close  0x08008fac       0x54 Middlewares\Third_Party\FatFs\src\ff.o
                0x08008fac                f_close
 .text.FATFS_LinkDriverEx
                0x08009000       0x98 Middlewares\Third_Party\FatFs\src\ff_gen_drv.o
                0x08009000                FATFS_LinkDriverEx
 .text.FATFS_LinkDriver
                0x08009098       0x1e Middlewares\Third_Party\FatFs\src\ff_gen_drv.o
                0x08009098                FATFS_LinkDriver
 *fill*         0x080090b6        0x2 
 .text.ff_convert
                0x080090b8       0x78 Middlewares\Third_Party\FatFs\src\option\ccsbcs.o
                0x080090b8                ff_convert
 .text.ff_wtoupper
                0x08009130      0x114 Middlewares\Third_Party\FatFs\src\option\ccsbcs.o
                0x08009130                ff_wtoupper
 .text.BSP_SD_Init
                0x08009244       0x30 Src\bsp_driver_sd.o
                0x08009244                BSP_SD_Init
 .text.BSP_SD_ReadBlocks_DMA
                0x08009274       0x34 Src\bsp_driver_sd.o
                0x08009274                BSP_SD_ReadBlocks_DMA
 .text.BSP_SD_WriteBlocks_DMA
                0x080092a8       0x34 Src\bsp_driver_sd.o
                0x080092a8                BSP_SD_WriteBlocks_DMA
 .text.BSP_SD_GetCardState
                0x080092dc       0x20 Src\bsp_driver_sd.o
                0x080092dc                BSP_SD_GetCardState
 .text.BSP_SD_GetCardInfo
                0x080092fc       0x1c Src\bsp_driver_sd.o
                0x080092fc                BSP_SD_GetCardInfo
 .text.HAL_SD_AbortCallback
                0x08009318       0x14 Src\bsp_driver_sd.o
                0x08009318                HAL_SD_AbortCallback
 .text.HAL_SD_TxCpltCallback
                0x0800932c       0x14 Src\bsp_driver_sd.o
                0x0800932c                HAL_SD_TxCpltCallback
 .text.HAL_SD_RxCpltCallback
                0x08009340       0x14 Src\bsp_driver_sd.o
                0x08009340                HAL_SD_RxCpltCallback
 .text.BSP_SD_AbortCallback
                0x08009354        0xe Src\bsp_driver_sd.o
                0x08009354                BSP_SD_AbortCallback
 .text.BSP_SD_IsDetected
                0x08009362       0x1a Src\bsp_driver_sd.o
                0x08009362                BSP_SD_IsDetected
 .text.HAL_CAN_MspInit
                0x0800937c       0x88 Src\can.o
                0x0800937c                HAL_CAN_MspInit
 .text.MX_DMA_Init
                0x08009404       0x4c Src\dma.o
                0x08009404                MX_DMA_Init
 .text.MX_FATFS_Init
                0x08009450       0x24 Src\fatfs.o
                0x08009450                MX_FATFS_Init
 .text.get_fattime
                0x08009474       0x10 Src\fatfs.o
                0x08009474                get_fattime
 .text.MX_GPIO_Init
                0x08009484      0x10c Src\gpio.o
                0x08009484                MX_GPIO_Init
 .text.HAL_SYSTICK_Callback
                0x08009590       0x30 Src\main.o
                0x08009590                HAL_SYSTICK_Callback
 .text.main     0x080095c0      0x324 Src\main.o
                0x080095c0                main
 .text.SystemClock_Config
                0x080098e4      0x14c Src\main.o
                0x080098e4                SystemClock_Config
 .text.MX_NVIC_Init
                0x08009a30       0x88 Src\main.o
 .text.Warning_Handler
                0x08009ab8       0x14 Src\main.o
                0x08009ab8                Warning_Handler
 .text.Error_Handler
                0x08009acc       0x58 Src\main.o
                0x08009acc                Error_Handler
 .text.HAL_RTC_MspInit
                0x08009b24       0x34 Src\rtc.o
                0x08009b24                HAL_RTC_MspInit
 .text.SD_CheckStatusWithTimeout
                0x08009b58       0x3a Src\sd_diskio.o
 *fill*         0x08009b92        0x2 
 .text.SD_CheckStatus
                0x08009b94       0x3c Src\sd_diskio.o
 .text.SD_initialize
                0x08009bd0       0x38 Src\sd_diskio.o
                0x08009bd0                SD_initialize
 .text.SD_status
                0x08009c08       0x1c Src\sd_diskio.o
                0x08009c08                SD_status
 .text.SD_read  0x08009c24      0x150 Src\sd_diskio.o
                0x08009c24                SD_read
 .text.SD_write
                0x08009d74      0x150 Src\sd_diskio.o
                0x08009d74                SD_write
 .text.SD_ioctl
                0x08009ec4       0xb0 Src\sd_diskio.o
                0x08009ec4                SD_ioctl
 .text.BSP_SD_WriteCpltCallback
                0x08009f74       0x18 Src\sd_diskio.o
                0x08009f74                BSP_SD_WriteCpltCallback
 .text.BSP_SD_ReadCpltCallback
                0x08009f8c       0x18 Src\sd_diskio.o
                0x08009f8c                BSP_SD_ReadCpltCallback
 .text.MX_SDMMC1_SD_Init
                0x08009fa4       0x44 Src\sdmmc.o
                0x08009fa4                MX_SDMMC1_SD_Init
 .text.HAL_SD_MspInit
                0x08009fe8      0x1c4 Src\sdmmc.o
                0x08009fe8                HAL_SD_MspInit
 .text.HAL_MspInit
                0x0800a1ac       0x48 Src\stm32f7xx_hal_msp.o
                0x0800a1ac                HAL_MspInit
 .text.NMI_Handler
                0x0800a1f4        0xe Src\stm32f7xx_it.o
                0x0800a1f4                NMI_Handler
 .text.HardFault_Handler
                0x0800a202        0xa Src\stm32f7xx_it.o
                0x0800a202                HardFault_Handler
 .text.MemManage_Handler
                0x0800a20c        0x6 Src\stm32f7xx_it.o
                0x0800a20c                MemManage_Handler
 .text.BusFault_Handler
                0x0800a212        0x6 Src\stm32f7xx_it.o
                0x0800a212                BusFault_Handler
 .text.UsageFault_Handler
                0x0800a218        0x6 Src\stm32f7xx_it.o
                0x0800a218                UsageFault_Handler
 .text.SVC_Handler
                0x0800a21e        0xe Src\stm32f7xx_it.o
                0x0800a21e                SVC_Handler
 .text.DebugMon_Handler
                0x0800a22c        0xe Src\stm32f7xx_it.o
                0x0800a22c                DebugMon_Handler
 .text.PendSV_Handler
                0x0800a23a        0xe Src\stm32f7xx_it.o
                0x0800a23a                PendSV_Handler
 .text.SysTick_Handler
                0x0800a248       0x10 Src\stm32f7xx_it.o
                0x0800a248                SysTick_Handler
 .text.RCC_IRQHandler
                0x0800a258        0xe Src\stm32f7xx_it.o
                0x0800a258                RCC_IRQHandler
 *fill*         0x0800a266        0x2 
 .text.CAN1_TX_IRQHandler
                0x0800a268       0x14 Src\stm32f7xx_it.o
                0x0800a268                CAN1_TX_IRQHandler
 .text.CAN1_RX0_IRQHandler
                0x0800a27c       0x14 Src\stm32f7xx_it.o
                0x0800a27c                CAN1_RX0_IRQHandler
 .text.CAN1_RX1_IRQHandler
                0x0800a290       0x14 Src\stm32f7xx_it.o
                0x0800a290                CAN1_RX1_IRQHandler
 .text.CAN1_SCE_IRQHandler
                0x0800a2a4       0x14 Src\stm32f7xx_it.o
                0x0800a2a4                CAN1_SCE_IRQHandler
 .text.USART1_IRQHandler
                0x0800a2b8       0x14 Src\stm32f7xx_it.o
                0x0800a2b8                USART1_IRQHandler
 .text.SDMMC1_IRQHandler
                0x0800a2cc       0x14 Src\stm32f7xx_it.o
                0x0800a2cc                SDMMC1_IRQHandler
 .text.DMA2_Stream3_IRQHandler
                0x0800a2e0       0x14 Src\stm32f7xx_it.o
                0x0800a2e0                DMA2_Stream3_IRQHandler
 .text.DMA2_Stream6_IRQHandler
                0x0800a2f4       0x14 Src\stm32f7xx_it.o
                0x0800a2f4                DMA2_Stream6_IRQHandler
 .text.DMA2_Stream7_IRQHandler
                0x0800a308       0x14 Src\stm32f7xx_it.o
                0x0800a308                DMA2_Stream7_IRQHandler
 .text._sbrk    0x0800a31c       0x58 Src\syscalls.o
                0x0800a31c                _sbrk
 .text.SystemInit
                0x0800a374       0x6c Src\system_stm32f7xx.o
                0x0800a374                SystemInit
 .text.HAL_UART_MspInit
                0x0800a3e0       0xf0 Src\usart.o
                0x0800a3e0                HAL_UART_MspInit
 .text.ActionScheduler_init
                0x0800a4d0       0x9c Src\user\action_scheduler.o
                0x0800a4d0                ActionScheduler_init
 .text.ActionScheduler_startScheduler
                0x0800a56c       0x38 Src\user\action_scheduler.o
                0x0800a56c                ActionScheduler_startScheduler
 .text.ActionScheduler_thread
                0x0800a5a4       0x5c Src\user\action_scheduler.o
                0x0800a5a4                ActionScheduler_thread
 .text._ActionScheduler_SetDateAndTimeFrameHandler
                0x0800a600       0x94 Src\user\action_scheduler.o
 .text._AcionScheduler_StartLogTrigger
                0x0800a694       0x3e Src\user\action_scheduler.o
 .text._AcionScheduler_StopLogTrigger
                0x0800a6d2       0x3e Src\user\action_scheduler.o
 .text._ActionScheduler_idleState
                0x0800a710       0x66 Src\user\action_scheduler.o
 .text._ActionScheduler_logInitState
                0x0800a776       0x80 Src\user\action_scheduler.o
 .text._ActionScheduler_loggingState
                0x0800a7f6      0x138 Src\user\action_scheduler.o
 .text._ActionScheduler_logCloseState
                0x0800a92e       0x64 Src\user\action_scheduler.o
 *fill*         0x0800a992        0x2 
 .text.CANReceiver_init
                0x0800a994      0x164 Src\user\can_receiver.o
                0x0800a994                CANReceiver_init
 .text.CANReceiver_start
                0x0800aaf8       0x2c Src\user\can_receiver.o
                0x0800aaf8                CANReceiver_start
 .text.CANReceiver_pullLastFrame
                0x0800ab24       0x3e Src\user\can_receiver.o
                0x0800ab24                CANReceiver_pullLastFrame
 .text.CANReceiver_RxCallback
                0x0800ab62       0x50 Src\user\can_receiver.o
                0x0800ab62                CANReceiver_RxCallback
 .text.CANReceiver_RxCallbackWrapper
                0x0800abb2       0x24 Src\user\can_receiver.o
                0x0800abb2                CANReceiver_RxCallbackWrapper
 .text.CANReceiver_ErrorCallback
                0x0800abd6       0x36 Src\user\can_receiver.o
                0x0800abd6                CANReceiver_ErrorCallback
 .text.CANReceiver_ErrorCallbackWrapper
                0x0800ac0c       0x28 Src\user\can_receiver.o
                0x0800ac0c                CANReceiver_ErrorCallbackWrapper
 .text.CANTransceiverDriver_HALCANInit
                0x0800ac34       0x72 Src\user\can_transceiver_driver.o
 .text.CANTransceiverDriver_init
                0x0800aca6      0x102 Src\user\can_transceiver_driver.o
                0x0800aca6                CANTransceiverDriver_init
 .text.CANTransceiverDriver_configFiltering
                0x0800ada8      0x110 Src\user\can_transceiver_driver.o
                0x0800ada8                CANTransceiverDriver_configFiltering
 .text.CANTransceiverDriver_receivedMsgCallbackHandler
                0x0800aeb8       0x74 Src\user\can_transceiver_driver.o
                0x0800aeb8                CANTransceiverDriver_receivedMsgCallbackHandler
 .text.CANTransceiverDriver_registerReceiveCallbackToCall
                0x0800af2c       0x60 Src\user\can_transceiver_driver.o
                0x0800af2c                CANTransceiverDriver_registerReceiveCallbackToCall
 .text.checkErrorcode
                0x0800af8c       0x32 Src\user\can_transceiver_driver.o
 .text.CANTransceiverDriver_errorCallbackHandler
                0x0800afbe      0x142 Src\user\can_transceiver_driver.o
                0x0800afbe                CANTransceiverDriver_errorCallbackHandler
 .text.CANTransceiverDriver_registerErrorCallbackToCall
                0x0800b100       0x64 Src\user\can_transceiver_driver.o
                0x0800b100                CANTransceiverDriver_registerErrorCallbackToCall
 .text.CANTransceiverDriver_start
                0x0800b164       0x3e Src\user\can_transceiver_driver.o
                0x0800b164                CANTransceiverDriver_start
 *fill*         0x0800b1a2        0x2 
 .text.HAL_CAN_RxFifo0MsgPendingCallback
                0x0800b1a4       0x64 Src\user\can_transceiver_driver.o
                0x0800b1a4                HAL_CAN_RxFifo0MsgPendingCallback
 .text.HAL_CAN_RxFifo1MsgPendingCallback
                0x0800b208       0x64 Src\user\can_transceiver_driver.o
                0x0800b208                HAL_CAN_RxFifo1MsgPendingCallback
 .text.HAL_CAN_ErrorCallback
                0x0800b26c       0x34 Src\user\can_transceiver_driver.o
                0x0800b26c                HAL_CAN_ErrorCallback
 .text._ConfigDataManager_validateCorrectFrame
                0x0800b2a0       0x4c Src\user\config.o
 .text._ConfigDataManager_validateGPSFrequency
                0x0800b2ec       0x24 Src\user\config.o
 .text._ConfigDataManager_validateCANSpeed
                0x0800b310       0x3c Src\user\config.o
 .text.ConfigDataManager_init
                0x0800b34c      0x440 Src\user\config.o
                0x0800b34c                ConfigDataManager_init
 .text.ConfigDataManager_getConfigPointer
                0x0800b78c       0x2c Src\user\config.o
                0x0800b78c                ConfigDataManager_getConfigPointer
 .text.DataSaver_init
                0x0800b7b8       0x3e Src\user\data_saver.o
                0x0800b7b8                DataSaver_init
 *fill*         0x0800b7f6        0x2 
 .text.DataSaver_startLogging
                0x0800b7f8      0x134 Src\user\data_saver.o
                0x0800b7f8                DataSaver_startLogging
 .text.DataSaver_stopLogging
                0x0800b92c       0x64 Src\user\data_saver.o
                0x0800b92c                DataSaver_stopLogging
 .text.DataSaver_writeCANData
                0x0800b990       0xa2 Src\user\data_saver.o
                0x0800b990                DataSaver_writeCANData
 .text.DataSaver_writeGPSData
                0x0800ba32      0x212 Src\user\data_saver.o
                0x0800ba32                DataSaver_writeGPSData
 .text.DataSaver_saveHeader
                0x0800bc44      0x3ee Src\user\data_saver.o
 .text.DODriver_init
                0x0800c032       0x58 Src\user\do_driver.o
                0x0800c032                DODriver_init
 .text.DODriver_SetHigh
                0x0800c08a       0x42 Src\user\do_driver.o
                0x0800c08a                DODriver_SetHigh
 .text.DODriver_SetLow
                0x0800c0cc       0x42 Src\user\do_driver.o
                0x0800c0cc                DODriver_SetLow
 .text.FIFOQueue_init
                0x0800c10e       0x6c Src\user\fifo_queue.o
                0x0800c10e                FIFOQueue_init
 .text.FIFOQueue_enqueue
                0x0800c17a       0x94 Src\user\fifo_queue.o
                0x0800c17a                FIFOQueue_enqueue
 .text.FIFOQueue_dequeue
                0x0800c20e       0x94 Src\user\fifo_queue.o
                0x0800c20e                FIFOQueue_dequeue
 .text.FIFOQueue_isFull
                0x0800c2a2       0x42 Src\user\fifo_queue.o
                0x0800c2a2                FIFOQueue_isFull
 .text.FIFOQueue_isEmpty
                0x0800c2e4       0x3c Src\user\fifo_queue.o
                0x0800c2e4                FIFOQueue_isEmpty
 .text.FIFOMultiread_init
                0x0800c320       0xa0 Src\user\fifo_queue_multiread.o
                0x0800c320                FIFOMultiread_init
 .text.FIFOMultiread_registerReader
                0x0800c3c0       0xbc Src\user\fifo_queue_multiread.o
                0x0800c3c0                FIFOMultiread_registerReader
 .text.FIFOMultiread_unregisterReader
                0x0800c47c       0x82 Src\user\fifo_queue_multiread.o
                0x0800c47c                FIFOMultiread_unregisterReader
 .text.FIFOMultiread_enqueue
                0x0800c4fe       0xf8 Src\user\fifo_queue_multiread.o
                0x0800c4fe                FIFOMultiread_enqueue
 .text.FIFOMultiread_isFull
                0x0800c5f6       0x8a Src\user\fifo_queue_multiread.o
                0x0800c5f6                FIFOMultiread_isFull
 .text.FIFOMultiread_isEmpty
                0x0800c680       0x94 Src\user\fifo_queue_multiread.o
                0x0800c680                FIFOMultiread_isEmpty
 .text.FIFOMultiread_dequeue
                0x0800c714      0x104 Src\user\fifo_queue_multiread.o
                0x0800c714                FIFOMultiread_dequeue
 .text.FIFOMultiread_lastElement
                0x0800c818       0xea Src\user\fifo_queue_multiread.o
                0x0800c818                FIFOMultiread_lastElement
 .text.FIFOMultiread_elementValOnPosition
                0x0800c902       0xea Src\user\fifo_queue_multiread.o
                0x0800c902                FIFOMultiread_elementValOnPosition
 .text.FIFOMultiread_elementsNumber
                0x0800c9ec       0x9c Src\user\fifo_queue_multiread.o
                0x0800c9ec                FIFOMultiread_elementsNumber
 .text.FileReadingBuffer_init
                0x0800ca88       0x46 Src\user\file_reading_buffer.o
                0x0800ca88                FileReadingBuffer_init
 .text.FileReadingBuffer_checkIfEmpty
                0x0800cace       0x46 Src\user\file_reading_buffer.o
 .text.FileReadingBuffer_readUInt8
                0x0800cb14       0x5a Src\user\file_reading_buffer.o
                0x0800cb14                FileReadingBuffer_readUInt8
 .text.FileReadingBuffer_readUInt16
                0x0800cb6e       0x84 Src\user\file_reading_buffer.o
                0x0800cb6e                FileReadingBuffer_readUInt16
 .text.FileReadingBuffer_readChar
                0x0800cbf2       0x28 Src\user\file_reading_buffer.o
                0x0800cbf2                FileReadingBuffer_readChar
 .text.FileReadingBuffer_readString
                0x0800cc1a       0x54 Src\user\file_reading_buffer.o
                0x0800cc1a                FileReadingBuffer_readString
 *fill*         0x0800cc6e        0x2 
 .text.remapResult
                0x0800cc70       0xc8 Src\user\file_system_wrapper.o
 .text.FileSystemWrapper_init
                0x0800cd38       0x60 Src\user\file_system_wrapper.o
                0x0800cd38                FileSystemWrapper_init
 .text.FileSystemWrapper_open
                0x0800cd98       0x5c Src\user\file_system_wrapper.o
                0x0800cd98                FileSystemWrapper_open
 .text.FileSystemWrapper_writeBinaryData
                0x0800cdf4       0x54 Src\user\file_system_wrapper.o
                0x0800cdf4                FileSystemWrapper_writeBinaryData
 .text.FileSystemWrapper_readData
                0x0800ce48       0x54 Src\user\file_system_wrapper.o
                0x0800ce48                FileSystemWrapper_readData
 .text.FileSystemWrapper_close
                0x0800ce9c       0x44 Src\user\file_system_wrapper.o
                0x0800ce9c                FileSystemWrapper_close
 .text.FileWritingBuffer_checkIfFull
                0x0800cee0       0x30 Src\user\file_writing_buffer.o
 .text.FileWritingBuffer_init
                0x0800cf10       0x44 Src\user\file_writing_buffer.o
                0x0800cf10                FileWritingBuffer_init
 .text.FileWritingBuffer_deInit
                0x0800cf54       0x4a Src\user\file_writing_buffer.o
                0x0800cf54                FileWritingBuffer_deInit
 .text.FileWritingBuffer_writeUInt8
                0x0800cf9e       0x60 Src\user\file_writing_buffer.o
                0x0800cf9e                FileWritingBuffer_writeUInt8
 .text.FileWritingBuffer_writeUInt16
                0x0800cffe       0x5a Src\user\file_writing_buffer.o
                0x0800cffe                FileWritingBuffer_writeUInt16
 .text.FileWritingBuffer_writeUInt32
                0x0800d058       0x8e Src\user\file_writing_buffer.o
                0x0800d058                FileWritingBuffer_writeUInt32
 .text.FileWritingBuffer_writeChar
                0x0800d0e6       0x3a Src\user\file_writing_buffer.o
                0x0800d0e6                FileWritingBuffer_writeChar
 .text.FileWritingBuffer_writeString
                0x0800d120       0x56 Src\user\file_writing_buffer.o
                0x0800d120                FileWritingBuffer_writeString
 .text.FileWritingBuffer_writeFixedPoint32
                0x0800d176       0x22 Src\user\file_writing_buffer.o
                0x0800d176                FileWritingBuffer_writeFixedPoint32
 .text.FileWritingBuffer_writeToFileSystem
                0x0800d198       0x6c Src\user\file_writing_buffer.o
                0x0800d198                FileWritingBuffer_writeToFileSystem
 .text.FixedPoint_constrDecimalFrac
                0x0800d204       0x72 Src\user\fixed_point.o
                0x0800d204                FixedPoint_constrDecimalFrac
 .text.FixedPoint_a_mult_b
                0x0800d276       0x82 Src\user\fixed_point.o
                0x0800d276                FixedPoint_a_mult_b
 .text.LedDriver_init
                0x0800d2f8       0x58 Src\user\led_driver.o
                0x0800d2f8                LedDriver_init
 .text.LedDriver_OnLed
                0x0800d350       0x36 Src\user\led_driver.o
                0x0800d350                LedDriver_OnLed
 .text.LedDriver_OffLed
                0x0800d386       0x36 Src\user\led_driver.o
                0x0800d386                LedDriver_OffLed
 .text.LedDriver_BlinkingLed
                0x0800d3bc       0x4c Src\user\led_driver.o
                0x0800d3bc                LedDriver_BlinkingLed
 .text.LedDriver_1msElapsedCallbackHandler
                0x0800d408       0x72 Src\user\led_driver.o
                0x0800d408                LedDriver_1msElapsedCallbackHandler
 .text.MSTimerDriver_init
                0x0800d47a       0x26 Src\user\ms_timer_driver.o
                0x0800d47a                MSTimerDriver_init
 .text.MSTimerDriver_startCounting
                0x0800d4a0       0x6c Src\user\ms_timer_driver.o
                0x0800d4a0                MSTimerDriver_startCounting
 .text.MSTimerDriver_getMSTime
                0x0800d50c       0x6c Src\user\ms_timer_driver.o
                0x0800d50c                MSTimerDriver_getMSTime
 .text.RTCDriver_HALInit
                0x0800d578       0x74 Src\user\rtc_driver.o
 .text.RTCDriver_HALRestoreTimeAndDate
                0x0800d5ec       0xb8 Src\user\rtc_driver.o
 .text.RTCDriver_HALSetTimeAndDate
                0x0800d6a4       0x84 Src\user\rtc_driver.o
 .text.RTCDriver_init
                0x0800d728       0xc8 Src\user\rtc_driver.o
                0x0800d728                RTCDriver_init
 .text.RTCDriver_getDateAndTime
                0x0800d7f0       0x9a Src\user\rtc_driver.o
                0x0800d7f0                RTCDriver_getDateAndTime
 .text.RTCDriver_setDateAndTime
                0x0800d88a       0x9c Src\user\rtc_driver.o
                0x0800d88a                RTCDriver_setDateAndTime
 .text.findChar
                0x0800d926       0x62 Src\user\string_operations.o
                0x0800d926                findChar
 .text.stringEqual
                0x0800d988       0x58 Src\user\string_operations.o
                0x0800d988                stringEqual
 .text.stringToFixedPoint
                0x0800d9e0       0xf4 Src\user\string_operations.o
                0x0800d9e0                stringToFixedPoint
 .text.decChar2Uint8
                0x0800dad4       0x3e Src\user\string_operations.o
                0x0800dad4                decChar2Uint8
 .text.string2UInt32
                0x0800db12       0x96 Src\user\string_operations.o
                0x0800db12                string2UInt32
 .text.uInt8ToHexStringMinDigits
                0x0800dba8       0x6c Src\user\string_operations.o
                0x0800dba8                uInt8ToHexStringMinDigits
 .text.UartDriver_init
                0x0800dc14       0xbe Src\user\uart_driver.o
                0x0800dc14                UartDriver_init
 .text.UartDriver_sendBytesDMA
                0x0800dcd2       0xce Src\user\uart_driver.o
                0x0800dcd2                UartDriver_sendBytesDMA
 .text.UartDriver_setReceivedByteCallback
                0x0800dda0       0xb0 Src\user\uart_driver.o
                0x0800dda0                UartDriver_setReceivedByteCallback
 .text.UartDriver_startReceiver
                0x0800de50       0x88 Src\user\uart_driver.o
                0x0800de50                UartDriver_startReceiver
 .text.UartDriver_waitForTxTimeout
                0x0800ded8       0x66 Src\user\uart_driver.o
                0x0800ded8                UartDriver_waitForTxTimeout
 .text.UartDriver_getState
                0x0800df3e       0x2c Src\user\uart_driver.o
                0x0800df3e                UartDriver_getState
 .text._UartDriver_receivedBytesCallback
                0x0800df6a       0x8a Src\user\uart_driver.o
 .text._UartDriver_errorCallback
                0x0800dff4       0x1c Src\user\uart_driver.o
 .text._UartDriver_transmitCompleteCallback
                0x0800e010       0x1c Src\user\uart_driver.o
 .text._UartDriver_initHAL
                0x0800e02c       0x92 Src\user\uart_driver.o
 *fill*         0x0800e0be        0x2 
 .text.HAL_UART_TxCpltCallback
                0x0800e0c0       0x24 Src\user\uart_driver.o
                0x0800e0c0                HAL_UART_TxCpltCallback
 .text.HAL_UART_RxCpltCallback
                0x0800e0e4       0x28 Src\user\uart_driver.o
                0x0800e0e4                HAL_UART_RxCpltCallback
 .text.HAL_UART_ErrorCallback
                0x0800e10c       0x28 Src\user\uart_driver.o
                0x0800e10c                HAL_UART_ErrorCallback
 .text.UartReceiverStartLength_init
                0x0800e134       0xf8 Src\user\uart_receiver_start_length.o
                0x0800e134                UartReceiverStartLength_init
 .text.UartReceiverStartLength_registerReader
                0x0800e22c      0x114 Src\user\uart_receiver_start_length.o
                0x0800e22c                UartReceiverStartLength_registerReader
 .text.UartReceiverStartLength_unregisterReader
                0x0800e340       0xca Src\user\uart_receiver_start_length.o
                0x0800e340                UartReceiverStartLength_unregisterReader
 .text.UartReceiverStartLength_start
                0x0800e40a       0x4c Src\user\uart_receiver_start_length.o
                0x0800e40a                UartReceiverStartLength_start
 .text.UartReceiverStartLength_stop
                0x0800e456       0x4c Src\user\uart_receiver_start_length.o
                0x0800e456                UartReceiverStartLength_stop
 .text.UartReceiverStartLength_pullLastSentence
                0x0800e4a2      0x272 Src\user\uart_receiver_start_length.o
                0x0800e4a2                UartReceiverStartLength_pullLastSentence
 .text._UartReceiverStartLength_removeNotStartCharsFromQueueFront
                0x0800e714       0x96 Src\user\uart_receiver_start_length.o
 *fill*         0x0800e7aa        0x2 
 .text._UartReceiverStartLength_receivedByteCallback
                0x0800e7ac       0xb4 Src\user\uart_receiver_start_length.o
 .text.UartReceiverStartTerm_init
                0x0800e860       0xf0 Src\user\uart_receiver_start_term.o
                0x0800e860                UartReceiverStartTerm_init
 .text.UartReceiverStartTerm_registerReader
                0x0800e950      0x108 Src\user\uart_receiver_start_term.o
                0x0800e950                UartReceiverStartTerm_registerReader
 .text.UartReceiverStartTerm_unregisterReader
                0x0800ea58       0xdc Src\user\uart_receiver_start_term.o
                0x0800ea58                UartReceiverStartTerm_unregisterReader
 .text.UartReceiverStartTerm_start
                0x0800eb34       0x6c Src\user\uart_receiver_start_term.o
                0x0800eb34                UartReceiverStartTerm_start
 .text.UartReceiverStartTerm_stop
                0x0800eba0       0x4c Src\user\uart_receiver_start_term.o
                0x0800eba0                UartReceiverStartTerm_stop
 .text.UartReceiverStartTerm_pullLastSentence
                0x0800ebec      0x2ae Src\user\uart_receiver_start_term.o
                0x0800ebec                UartReceiverStartTerm_pullLastSentence
 *fill*         0x0800ee9a        0x2 
 .text.UartReceiverStartTerm_receivedByteCallback
                0x0800ee9c       0xe4 Src\user\uart_receiver_start_term.o
 .text.GPSDriver_init
                0x0800ef80      0x12c Src\user\ublox_m8_gps_driver.o
                0x0800ef80                GPSDriver_init
 .text.GPSDriver_startReceiver
                0x0800f0ac       0x8e Src\user\ublox_m8_gps_driver.o
                0x0800f0ac                GPSDriver_startReceiver
 .text.GPSDriver_stopReceiver
                0x0800f13a       0x6a Src\user\ublox_m8_gps_driver.o
                0x0800f13a                GPSDriver_stopReceiver
 .text.GPSDriver_pullLastFrame
                0x0800f1a4      0x2f8 Src\user\ublox_m8_gps_driver.o
                0x0800f1a4                GPSDriver_pullLastFrame
 .text.GPSDriver_getState
                0x0800f49c       0x32 Src\user\ublox_m8_gps_driver.o
                0x0800f49c                GPSDriver_getState
 .text.GPSDriver_setOFF
                0x0800f4ce       0xa6 Src\user\ublox_m8_gps_driver.o
                0x0800f4ce                GPSDriver_setOFF
 .text._GPSDriver_sendCommand
                0x0800f574       0x52 Src\user\ublox_m8_gps_driver.o
 .text._GPSDriver_getNMEAChecksumValue
                0x0800f5c6       0x68 Src\user\ublox_m8_gps_driver.o
 .text._GPSDriver_checkNMEAChecksum
                0x0800f62e       0xb2 Src\user\ublox_m8_gps_driver.o
 .text._GPSDriver_sendUBXCommandAndWaitForResponse
                0x0800f6e0      0x148 Src\user\ublox_m8_gps_driver.o
 .text._GPSDriver_getUBXChecksumValue
                0x0800f828       0x68 Src\user\ublox_m8_gps_driver.o
 .text._GPSDriver_sendUbxCfgRateUTCCommand
                0x0800f890      0x1e4 Src\user\ublox_m8_gps_driver.o
 .text._GPSDriver_parseTime
                0x0800fa74      0x1bc Src\user\ublox_m8_gps_driver.o
 .text._GPSDriver_parseDate
                0x0800fc30      0x12c Src\user\ublox_m8_gps_driver.o
 .text._GPSDriver_parseLatitude
                0x0800fd5c       0xd4 Src\user\ublox_m8_gps_driver.o
 .text._GPSDriver_parseLongitude
                0x0800fe30       0xd4 Src\user\ublox_m8_gps_driver.o
 .text._GPSDriver_parseFixedPoint
                0x0800ff04       0xd8 Src\user\ublox_m8_gps_driver.o
 .text._GPSDriver_handleGNGGASentence
                0x0800ffdc      0x2ca Src\user\ublox_m8_gps_driver.o
 .text._GPSDriver_handleGNGSASentence
                0x080102a6      0x1c6 Src\user\ublox_m8_gps_driver.o
 .text._GPSDriver_handleGNRMCSentence
                0x0801046c      0x33c Src\user\ublox_m8_gps_driver.o
 .text.Reset_Handler
                0x080107a8       0x50 startup\startup_stm32f767xx.o
                0x080107a8                Reset_Handler
 .text.Default_Handler
                0x080107f8        0x2 startup\startup_stm32f767xx.o
                0x080107f8                RTC_Alarm_IRQHandler
                0x080107f8                EXTI2_IRQHandler
                0x080107f8                TIM8_CC_IRQHandler
                0x080107f8                UART8_IRQHandler
                0x080107f8                SPI4_IRQHandler
                0x080107f8                TIM1_CC_IRQHandler
                0x080107f8                DMA2_Stream5_IRQHandler
                0x080107f8                JPEG_IRQHandler
                0x080107f8                DMA1_Stream5_IRQHandler
                0x080107f8                CAN3_RX1_IRQHandler
                0x080107f8                PVD_IRQHandler
                0x080107f8                TAMP_STAMP_IRQHandler
                0x080107f8                CAN2_RX1_IRQHandler
                0x080107f8                EXTI3_IRQHandler
                0x080107f8                TIM8_TRG_COM_TIM14_IRQHandler
                0x080107f8                DFSDM1_FLT1_IRQHandler
                0x080107f8                TIM1_UP_TIM10_IRQHandler
                0x080107f8                TIM8_UP_TIM13_IRQHandler
                0x080107f8                I2C3_ER_IRQHandler
                0x080107f8                DFSDM1_FLT2_IRQHandler
                0x080107f8                EXTI0_IRQHandler
                0x080107f8                I2C2_EV_IRQHandler
                0x080107f8                DMA1_Stream2_IRQHandler
                0x080107f8                FPU_IRQHandler
                0x080107f8                OTG_HS_WKUP_IRQHandler
                0x080107f8                CAN3_SCE_IRQHandler
                0x080107f8                LTDC_ER_IRQHandler
                0x080107f8                CAN2_SCE_IRQHandler
                0x080107f8                DMA2_Stream2_IRQHandler
                0x080107f8                SPI1_IRQHandler
                0x080107f8                TIM6_DAC_IRQHandler
                0x080107f8                TIM1_BRK_TIM9_IRQHandler
                0x080107f8                DCMI_IRQHandler
                0x080107f8                CAN2_RX0_IRQHandler
                0x080107f8                SAI2_IRQHandler
                0x080107f8                DFSDM1_FLT3_IRQHandler
                0x080107f8                USART6_IRQHandler
                0x080107f8                CAN3_RX0_IRQHandler
                0x080107f8                USART3_IRQHandler
                0x080107f8                UART5_IRQHandler
                0x080107f8                DMA2_Stream0_IRQHandler
                0x080107f8                TIM4_IRQHandler
                0x080107f8                QUADSPI_IRQHandler
                0x080107f8                I2C1_EV_IRQHandler
                0x080107f8                DMA1_Stream6_IRQHandler
                0x080107f8                DMA1_Stream1_IRQHandler
                0x080107f8                UART4_IRQHandler
                0x080107f8                TIM3_IRQHandler
                0x080107f8                TIM8_BRK_TIM12_IRQHandler
                0x080107f8                Default_Handler
                0x080107f8                CEC_IRQHandler
                0x080107f8                EXTI15_10_IRQHandler
                0x080107f8                ADC_IRQHandler
                0x080107f8                DMA1_Stream7_IRQHandler
                0x080107f8                SPI5_IRQHandler
                0x080107f8                TIM7_IRQHandler
                0x080107f8                CAN2_TX_IRQHandler
                0x080107f8                TIM5_IRQHandler
                0x080107f8                I2C3_EV_IRQHandler
                0x080107f8                EXTI9_5_IRQHandler
                0x080107f8                RTC_WKUP_IRQHandler
                0x080107f8                LTDC_IRQHandler
                0x080107f8                ETH_WKUP_IRQHandler
                0x080107f8                SPDIF_RX_IRQHandler
                0x080107f8                SPI2_IRQHandler
                0x080107f8                OTG_HS_EP1_IN_IRQHandler
                0x080107f8                DMA1_Stream0_IRQHandler
                0x080107f8                EXTI4_IRQHandler
                0x080107f8                RNG_IRQHandler
                0x080107f8                ETH_IRQHandler
                0x080107f8                OTG_HS_EP1_OUT_IRQHandler
                0x080107f8                WWDG_IRQHandler
                0x080107f8                SPI6_IRQHandler
                0x080107f8                MDIOS_IRQHandler
                0x080107f8                I2C4_EV_IRQHandler
                0x080107f8                CAN3_TX_IRQHandler
                0x080107f8                TIM2_IRQHandler
                0x080107f8                OTG_FS_WKUP_IRQHandler
                0x080107f8                TIM1_TRG_COM_TIM11_IRQHandler
                0x080107f8                OTG_HS_IRQHandler
                0x080107f8                DMA2D_IRQHandler
                0x080107f8                EXTI1_IRQHandler
                0x080107f8                SDMMC2_IRQHandler
                0x080107f8                UART7_IRQHandler
                0x080107f8                USART2_IRQHandler
                0x080107f8                DFSDM1_FLT0_IRQHandler
                0x080107f8                I2C2_ER_IRQHandler
                0x080107f8                DMA2_Stream1_IRQHandler
                0x080107f8                FLASH_IRQHandler
                0x080107f8                DMA2_Stream4_IRQHandler
                0x080107f8                OTG_FS_IRQHandler
                0x080107f8                SPI3_IRQHandler
                0x080107f8                DMA1_Stream4_IRQHandler
                0x080107f8                I2C1_ER_IRQHandler
                0x080107f8                FMC_IRQHandler
                0x080107f8                LPTIM1_IRQHandler
                0x080107f8                I2C4_ER_IRQHandler
                0x080107f8                SAI1_IRQHandler
                0x080107f8                DMA1_Stream3_IRQHandler
 *fill*         0x080107fa        0x2 
 .text.__errno  0x080107fc        0xc c:/program files (x86)/atollic/truestudio for stm32 9.2.0/armtools/bin/../lib/gcc/arm-atollic-eabi/6.3.1/../../../../arm-atollic-eabi/lib/armv7e-m/fpu/fpv5-d16\libc_nano.a(lib_a-errno.o)
                0x080107fc                __errno
 .text.__libc_init_array
                0x08010808       0x48 c:/program files (x86)/atollic/truestudio for stm32 9.2.0/armtools/bin/../lib/gcc/arm-atollic-eabi/6.3.1/../../../../arm-atollic-eabi/lib/armv7e-m/fpu/fpv5-d16\libc_nano.a(lib_a-init.o)
                0x08010808                __libc_init_array
 .text.memcpy   0x08010850       0x16 c:/program files (x86)/atollic/truestudio for stm32 9.2.0/armtools/bin/../lib/gcc/arm-atollic-eabi/6.3.1/../../../../arm-atollic-eabi/lib/armv7e-m/fpu/fpv5-d16\libc_nano.a(lib_a-memcpy-stub.o)
                0x08010850                memcpy
 .text.memset   0x08010866       0x10 c:/program files (x86)/atollic/truestudio for stm32 9.2.0/armtools/bin/../lib/gcc/arm-atollic-eabi/6.3.1/../../../../arm-atollic-eabi/lib/armv7e-m/fpu/fpv5-d16\libc_nano.a(lib_a-memset.o)
                0x08010866                memset
 *fill*         0x08010876        0x2 
 .text.sprintf  0x08010878       0x48 c:/program files (x86)/atollic/truestudio for stm32 9.2.0/armtools/bin/../lib/gcc/arm-atollic-eabi/6.3.1/../../../../arm-atollic-eabi/lib/armv7e-m/fpu/fpv5-d16\libc_nano.a(lib_a-sprintf.o)
                0x08010878                siprintf
                0x08010878                sprintf
 .text.__ssputs_r
                0x080108c0       0xb6 c:/program files (x86)/atollic/truestudio for stm32 9.2.0/armtools/bin/../lib/gcc/arm-atollic-eabi/6.3.1/../../../../arm-atollic-eabi/lib/armv7e-m/fpu/fpv5-d16\libc_nano.a(lib_a-nano-svfprintf.o)
                0x080108c0                __ssputs_r
 *fill*         0x08010976        0x2 
 .text._svfprintf_r
                0x08010978      0x1e8 c:/program files (x86)/atollic/truestudio for stm32 9.2.0/armtools/bin/../lib/gcc/arm-atollic-eabi/6.3.1/../../../../arm-atollic-eabi/lib/armv7e-m/fpu/fpv5-d16\libc_nano.a(lib_a-nano-svfprintf.o)
                0x08010978                _svfiprintf_r
                0x08010978                _svfprintf_r
 .text._printf_common
                0x08010b60       0xec c:/program files (x86)/atollic/truestudio for stm32 9.2.0/armtools/bin/../lib/gcc/arm-atollic-eabi/6.3.1/../../../../arm-atollic-eabi/lib/armv7e-m/fpu/fpv5-d16\libc_nano.a(lib_a-nano-vfprintf_i.o)
                0x08010b60                _printf_common
 .text._printf_i
                0x08010c4c      0x240 c:/program files (x86)/atollic/truestudio for stm32 9.2.0/armtools/bin/../lib/gcc/arm-atollic-eabi/6.3.1/../../../../arm-atollic-eabi/lib/armv7e-m/fpu/fpv5-d16\libc_nano.a(lib_a-nano-vfprintf_i.o)
                0x08010c4c                _printf_i
 .text.memmove  0x08010e8c       0x34 c:/program files (x86)/atollic/truestudio for stm32 9.2.0/armtools/bin/../lib/gcc/arm-atollic-eabi/6.3.1/../../../../arm-atollic-eabi/lib/armv7e-m/fpu/fpv5-d16\libc_nano.a(lib_a-memmove.o)
                0x08010e8c                memmove
 .text._free_r  0x08010ec0       0x9c c:/program files (x86)/atollic/truestudio for stm32 9.2.0/armtools/bin/../lib/gcc/arm-atollic-eabi/6.3.1/../../../../arm-atollic-eabi/lib/armv7e-m/fpu/fpv5-d16\libc_nano.a(lib_a-nano-freer.o)
                0x08010ec0                _free_r
 .text._malloc_r
                0x08010f5c       0xbc c:/program files (x86)/atollic/truestudio for stm32 9.2.0/armtools/bin/../lib/gcc/arm-atollic-eabi/6.3.1/../../../../arm-atollic-eabi/lib/armv7e-m/fpu/fpv5-d16\libc_nano.a(lib_a-nano-mallocr.o)
                0x08010f5c                _malloc_r
 .text._realloc_r
                0x08011018       0x4c c:/program files (x86)/atollic/truestudio for stm32 9.2.0/armtools/bin/../lib/gcc/arm-atollic-eabi/6.3.1/../../../../arm-atollic-eabi/lib/armv7e-m/fpu/fpv5-d16\libc_nano.a(lib_a-nano-reallocr.o)
                0x08011018                _realloc_r
 .text._sbrk_r  0x08011064       0x20 c:/program files (x86)/atollic/truestudio for stm32 9.2.0/armtools/bin/../lib/gcc/arm-atollic-eabi/6.3.1/../../../../arm-atollic-eabi/lib/armv7e-m/fpu/fpv5-d16\libc_nano.a(lib_a-sbrkr.o)
                0x08011064                _sbrk_r
 .text.__malloc_lock
                0x08011084        0x2 c:/program files (x86)/atollic/truestudio for stm32 9.2.0/armtools/bin/../lib/gcc/arm-atollic-eabi/6.3.1/../../../../arm-atollic-eabi/lib/armv7e-m/fpu/fpv5-d16\libc_nano.a(lib_a-mlock.o)
                0x08011084                __malloc_lock
 .text.__malloc_unlock
                0x08011086        0x2 c:/program files (x86)/atollic/truestudio for stm32 9.2.0/armtools/bin/../lib/gcc/arm-atollic-eabi/6.3.1/../../../../arm-atollic-eabi/lib/armv7e-m/fpu/fpv5-d16\libc_nano.a(lib_a-mlock.o)
                0x08011086                __malloc_unlock
 .text._malloc_usable_size_r
                0x08011088       0x12 c:/program files (x86)/atollic/truestudio for stm32 9.2.0/armtools/bin/../lib/gcc/arm-atollic-eabi/6.3.1/../../../../arm-atollic-eabi/lib/armv7e-m/fpu/fpv5-d16\libc_nano.a(lib_a-nano-msizer.o)
                0x08011088                _malloc_usable_size_r
 *(.glue_7)
 .glue_7        0x0801109a        0x0 linker stubs
 *(.glue_7t)
 .glue_7t       0x0801109a        0x0 linker stubs
 *(.eh_frame)
 *fill*         0x0801109a        0x2 
 .eh_frame      0x0801109c        0x0 c:/program files (x86)/atollic/truestudio for stm32 9.2.0/armtools/bin/../lib/gcc/arm-atollic-eabi/6.3.1/armv7e-m/fpu/fpv5-d16/crtbegin.o
 *(.init)
 .init          0x0801109c        0x4 c:/program files (x86)/atollic/truestudio for stm32 9.2.0/armtools/bin/../lib/gcc/arm-atollic-eabi/6.3.1/armv7e-m/fpu/fpv5-d16/crti.o
                0x0801109c                _init
 .init          0x080110a0        0x8 c:/program files (x86)/atollic/truestudio for stm32 9.2.0/armtools/bin/../lib/gcc/arm-atollic-eabi/6.3.1/armv7e-m/fpu/fpv5-d16/crtn.o
 *(.fini)
 .fini          0x080110a8        0x4 c:/program files (x86)/atollic/truestudio for stm32 9.2.0/armtools/bin/../lib/gcc/arm-atollic-eabi/6.3.1/armv7e-m/fpu/fpv5-d16/crti.o
                0x080110a8                _fini
 .fini          0x080110ac        0x8 c:/program files (x86)/atollic/truestudio for stm32 9.2.0/armtools/bin/../lib/gcc/arm-atollic-eabi/6.3.1/armv7e-m/fpu/fpv5-d16/crtn.o
                0x080110b4                . = ALIGN (0x4)
                0x080110b4                _etext = .

.vfp11_veneer   0x080110b4        0x0
 .vfp11_veneer  0x080110b4        0x0 linker stubs

.v4_bx          0x080110b4        0x0
 .v4_bx         0x080110b4        0x0 linker stubs

.iplt           0x080110b4        0x0
 .iplt          0x080110b4        0x0 c:/program files (x86)/atollic/truestudio for stm32 9.2.0/armtools/bin/../lib/gcc/arm-atollic-eabi/6.3.1/armv7e-m/fpu/fpv5-d16/crtbegin.o

.rodata         0x080110b4      0x9c0
                0x080110b4                . = ALIGN (0x4)
 *(.rodata)
 .rodata        0x080110b4       0x48 Middlewares\Third_Party\FatFs\src\ff.o
 .rodata        0x080110fc      0x14f Src\main.o
 *fill*         0x0801124b        0x1 
 .rodata        0x0801124c        0xf Src\user\config.o
 *fill*         0x0801125b        0x1 
 .rodata        0x0801125c       0x2f Src\user\data_saver.o
 *fill*         0x0801128b        0x1 
 .rodata        0x0801128c        0x1 Src\user\file_system_wrapper.o
 *fill*         0x0801128d        0x3 
 .rodata        0x08011290       0x20 Src\user\string_operations.o
 .rodata        0x080112b0       0x50 Src\user\uart_receiver_start_length.o
 .rodata        0x08011300       0x5b Src\user\uart_receiver_start_term.o
 *fill*         0x0801135b        0x1 
 .rodata        0x0801135c      0x245 Src\user\ublox_m8_gps_driver.o
 *(.rodata*)
 *fill*         0x080115a1        0x3 
 .rodata.flagBitshiftOffset.8945
                0x080115a4        0x8 Drivers\STM32F7xx_HAL_Driver\Src\stm32f7xx_hal_dma.o
 .rodata.ExCvt  0x080115ac       0x80 Middlewares\Third_Party\FatFs\src\ff.o
 .rodata.LfnOfs
                0x0801162c        0xd Middlewares\Third_Party\FatFs\src\ff.o
 *fill*         0x08011639        0x3 
 .rodata.Tbl    0x0801163c      0x100 Middlewares\Third_Party\FatFs\src\option\ccsbcs.o
 .rodata.cvt1.9682
                0x0801173c      0x1f2 Middlewares\Third_Party\FatFs\src\option\ccsbcs.o
 *fill*         0x0801192e        0x2 
 .rodata.cvt2.9683
                0x08011930       0xbc Middlewares\Third_Party\FatFs\src\option\ccsbcs.o
 .rodata.SD_Driver
                0x080119ec       0x14 Src\sd_diskio.o
                0x080119ec                SD_Driver
 .rodata.AHBPrescTable
                0x08011a00       0x10 Src\system_stm32f7xx.o
                0x08011a00                AHBPrescTable
 .rodata.APBPrescTable
                0x08011a10        0x8 Src\system_stm32f7xx.o
                0x08011a10                APBPrescTable
 .rodata.backupRegistersIndexes
                0x08011a18        0xc Src\user\rtc_driver.o
 .rodata.backupRegistersValues
                0x08011a24        0xc Src\user\rtc_driver.o
 .rodata.ubxCfgRateACKAnswerPrefix
                0x08011a30        0x8 Src\user\ublox_m8_gps_driver.o
 .rodata.ubxCfgRateNAKAnswerPrefix
                0x08011a38        0x8 Src\user\ublox_m8_gps_driver.o
 .rodata._svfprintf_r.str1.1
                0x08011a40       0x11 c:/program files (x86)/atollic/truestudio for stm32 9.2.0/armtools/bin/../lib/gcc/arm-atollic-eabi/6.3.1/../../../../arm-atollic-eabi/lib/armv7e-m/fpu/fpv5-d16\libc_nano.a(lib_a-nano-svfprintf.o)
 .rodata._printf_i.str1.1
                0x08011a51       0x22 c:/program files (x86)/atollic/truestudio for stm32 9.2.0/armtools/bin/../lib/gcc/arm-atollic-eabi/6.3.1/../../../../arm-atollic-eabi/lib/armv7e-m/fpu/fpv5-d16\libc_nano.a(lib_a-nano-vfprintf_i.o)
                0x08011a74                . = ALIGN (0x4)
 *fill*         0x08011a73        0x1 

.ARM.extab
 *(.ARM.extab* .gnu.linkonce.armextab.*)

.ARM            0x08011a74        0x8
                0x08011a74                __exidx_start = .
 *(.ARM.exidx*)
 .ARM.exidx     0x08011a74        0x8 c:/program files (x86)/atollic/truestudio for stm32 9.2.0/armtools/bin/../lib/gcc/arm-atollic-eabi/6.3.1/armv7e-m/fpu/fpv5-d16\libgcc.a(_udivmoddi4.o)
                0x08011a7c                __exidx_end = .

.rel.dyn        0x08011a7c        0x0
 .rel.iplt      0x08011a7c        0x0 c:/program files (x86)/atollic/truestudio for stm32 9.2.0/armtools/bin/../lib/gcc/arm-atollic-eabi/6.3.1/armv7e-m/fpu/fpv5-d16/crtbegin.o

.preinit_array  0x08011a7c        0x0
                0x08011a7c                PROVIDE (__preinit_array_start, .)
 *(.preinit_array*)
                0x08011a7c                PROVIDE (__preinit_array_end, .)

.init_array     0x08011a7c        0x4
                0x08011a7c                PROVIDE (__init_array_start, .)
 *(SORT(.init_array.*))
 *(.init_array*)
 .init_array    0x08011a7c        0x4 c:/program files (x86)/atollic/truestudio for stm32 9.2.0/armtools/bin/../lib/gcc/arm-atollic-eabi/6.3.1/armv7e-m/fpu/fpv5-d16/crtbegin.o
                0x08011a80                PROVIDE (__init_array_end, .)

.fini_array     0x08011a80        0x4
                [!provide]                PROVIDE (__fini_array_start, .)
 *(SORT(.fini_array.*))
 *(.fini_array*)
 .fini_array    0x08011a80        0x4 c:/program files (x86)/atollic/truestudio for stm32 9.2.0/armtools/bin/../lib/gcc/arm-atollic-eabi/6.3.1/armv7e-m/fpu/fpv5-d16/crtbegin.o
                [!provide]                PROVIDE (__fini_array_end, .)
                0x08011a84                _sidata = LOADADDR (.data)

.data           0x20000000       0x78 load address 0x08011a84
                0x20000000                . = ALIGN (0x4)
                0x20000000                _sdata = .
 *(.data)
 *(.data*)
 .data.uwTickPrio
                0x20000000        0x4 Drivers\STM32F7xx_HAL_Driver\Src\stm32f7xx_hal.o
                0x20000000                uwTickPrio
 .data.uwTickFreq
                0x20000004        0x1 Drivers\STM32F7xx_HAL_Driver\Src\stm32f7xx_hal.o
                0x20000004                uwTickFreq
 *fill*         0x20000005        0x1 
 .data.ledDebug1Pin
                0x20000006        0x2 Src\main.o
                0x20000006                ledDebug1Pin
 .data.ledDebug2Pin
                0x20000008        0x2 Src\main.o
                0x20000008                ledDebug2Pin
 .data.gpsResetPin
                0x2000000a        0x2 Src\main.o
                0x2000000a                gpsResetPin
 .data.Stat     0x2000000c        0x1 Src\sd_diskio.o
 *fill*         0x2000000d        0x3 
 .data.SystemCoreClock
                0x20000010        0x4 Src\system_stm32f7xx.o
                0x20000010                SystemCoreClock
 .data._impure_ptr
                0x20000014        0x4 c:/program files (x86)/atollic/truestudio for stm32 9.2.0/armtools/bin/../lib/gcc/arm-atollic-eabi/6.3.1/../../../../arm-atollic-eabi/lib/armv7e-m/fpu/fpv5-d16\libc_nano.a(lib_a-impure.o)
                0x20000014                _impure_ptr
 .data.impure_data
                0x20000018       0x60 c:/program files (x86)/atollic/truestudio for stm32 9.2.0/armtools/bin/../lib/gcc/arm-atollic-eabi/6.3.1/../../../../arm-atollic-eabi/lib/armv7e-m/fpu/fpv5-d16\libc_nano.a(lib_a-impure.o)
                0x20000078                . = ALIGN (0x4)
                0x20000078                _edata = .

.igot.plt       0x20000078        0x0 load address 0x08011afc
 .igot.plt      0x20000078        0x0 c:/program files (x86)/atollic/truestudio for stm32 9.2.0/armtools/bin/../lib/gcc/arm-atollic-eabi/6.3.1/armv7e-m/fpu/fpv5-d16/crtbegin.o
                0x20000078                . = ALIGN (0x4)

.bss            0x20000078     0xf338 load address 0x08011afc
                0x20000078                _sbss = .
                0x20000078                __bss_start__ = _sbss
 *(.bss)
 .bss           0x20000078       0x1c c:/program files (x86)/atollic/truestudio for stm32 9.2.0/armtools/bin/../lib/gcc/arm-atollic-eabi/6.3.1/armv7e-m/fpu/fpv5-d16/crtbegin.o
 *(.bss*)
 .bss.FatFs     0x20000094        0x4 Middlewares\Third_Party\FatFs\src\ff.o
 .bss.Fsid      0x20000098        0x2 Middlewares\Third_Party\FatFs\src\ff.o
 *fill*         0x2000009a        0x2 
 .bss.Files     0x2000009c       0x20 Middlewares\Third_Party\FatFs\src\ff.o
 .bss.LfnBuf    0x200000bc      0x200 Middlewares\Third_Party\FatFs\src\ff.o
 .bss.disk      0x200002bc        0xc Middlewares\Third_Party\FatFs\src\ff_gen_drv.o
                0x200002bc                disk
 .bss.errorInCounter
                0x200002c8        0x2 Src\main.o
 *fill*         0x200002ca        0x2 
 .bss.scratch   0x200002cc      0x200 Src\sd_diskio.o
 .bss.WriteStatus
                0x200004cc        0x4 Src\sd_diskio.o
 .bss.ReadStatus
                0x200004d0        0x4 Src\sd_diskio.o
 .bss.heap_end.7010
                0x200004d4        0x4 Src\syscalls.o
 .bss.__malloc_free_list
                0x200004d8        0x4 c:/program files (x86)/atollic/truestudio for stm32 9.2.0/armtools/bin/../lib/gcc/arm-atollic-eabi/6.3.1/../../../../arm-atollic-eabi/lib/armv7e-m/fpu/fpv5-d16\libc_nano.a(lib_a-nano-mallocr.o)
                0x200004d8                __malloc_free_list
 .bss.__malloc_sbrk_start
                0x200004dc        0x4 c:/program files (x86)/atollic/truestudio for stm32 9.2.0/armtools/bin/../lib/gcc/arm-atollic-eabi/6.3.1/../../../../arm-atollic-eabi/lib/armv7e-m/fpu/fpv5-d16\libc_nano.a(lib_a-nano-mallocr.o)
                0x200004dc                __malloc_sbrk_start
 *(COMMON)
 COMMON         0x200004e0        0x4 Drivers\STM32F7xx_HAL_Driver\Src\stm32f7xx_hal.o
                0x200004e0                uwTick
 COMMON         0x200004e4       0x28 Src\can.o
                0x200004e4                hcan1
 COMMON         0x2000050c      0x26c Src\fatfs.o
                0x2000050c                retSD
                0x20000510                SDPath
                0x20000514                SDFile
                0x20000544                SDFatFS
 COMMON         0x20000778     0xe9f0 Src\main.o
                0x20000778                configDataManager
                0x2000ab1c                uartGpsUBXReceiverTerm
                0x2000bbc4                uartGpsDriver
                0x2000bc00                gpsResetDriver
                0x2000bc10                uartGpsNMEAReceiverTerm
                0x2000ccb0                ledDebug1Driver
                0x2000ccc8                gpsDriver
                0x2000cd44                canReceiver
                0x2000ed60                ledDebug2Driver
                0x2000ed78                canTransceiverDriver
                0x2000edac                rtcDriver
                0x2000edb4                actionScheduler
                0x2000edd4                dataSaver
                0x2000ef24                fileSystem
                0x2000f15c                msTimerDriver
 COMMON         0x2000f168       0x20 Src\rtc.o
                0x2000f168                hrtc
 COMMON         0x2000f188      0x144 Src\sdmmc.o
                0x2000f188                hsd1
                0x2000f20c                hdma_sdmmc1_rx
                0x2000f26c                hdma_sdmmc1_tx
 COMMON         0x2000f2cc       0xe0 Src\usart.o
                0x2000f2cc                hdma_usart1_tx
                0x2000f32c                huart1
 COMMON         0x2000f3ac        0x4 c:/program files (x86)/atollic/truestudio for stm32 9.2.0/armtools/bin/../lib/gcc/arm-atollic-eabi/6.3.1/../../../../arm-atollic-eabi/lib/armv7e-m/fpu/fpv5-d16\libc_nano.a(lib_a-reent.o)
                0x2000f3ac                errno
                0x2000f3b0                . = ALIGN (0x4)
                0x2000f3b0                _ebss = .
                0x2000f3b0                __bss_end__ = _ebss

._user_heap_stack
                0x2000f3b0    0x60200 load address 0x08011afc
                0x2000f3b0                . = ALIGN (0x4)
                0x2000f3b0                PROVIDE (end, .)
                [!provide]                PROVIDE (_end, .)
                0x2000f5b0                . = (. + _Min_Heap_Size)
 *fill*         0x2000f3b0      0x200 
                0x2006f5b0                . = (. + _Min_Stack_Size)
 *fill*         0x2000f5b0    0x60000 
                0x2006f5b0                . = ALIGN (0x4)

/DISCARD/
 libc.a(*)
 libm.a(*)
 libgcc.a(*)

.ARM.attributes
                0x00000000       0x2e
 *(.ARM.attributes)
 .ARM.attributes
                0x00000000       0x20 c:/program files (x86)/atollic/truestudio for stm32 9.2.0/armtools/bin/../lib/gcc/arm-atollic-eabi/6.3.1/armv7e-m/fpu/fpv5-d16/crti.o
 .ARM.attributes
                0x00000020       0x32 c:/program files (x86)/atollic/truestudio for stm32 9.2.0/armtools/bin/../lib/gcc/arm-atollic-eabi/6.3.1/armv7e-m/fpu/fpv5-d16/crtbegin.o
 .ARM.attributes
                0x00000052       0x37 Drivers\STM32F7xx_HAL_Driver\Src\stm32f7xx_hal.o
 .ARM.attributes
                0x00000089       0x37 Drivers\STM32F7xx_HAL_Driver\Src\stm32f7xx_hal_can.o
 .ARM.attributes
                0x000000c0       0x37 Drivers\STM32F7xx_HAL_Driver\Src\stm32f7xx_hal_cortex.o
 .ARM.attributes
                0x000000f7       0x37 Drivers\STM32F7xx_HAL_Driver\Src\stm32f7xx_hal_dma.o
 .ARM.attributes
                0x0000012e       0x37 Drivers\STM32F7xx_HAL_Driver\Src\stm32f7xx_hal_gpio.o
 .ARM.attributes
                0x00000165       0x37 Drivers\STM32F7xx_HAL_Driver\Src\stm32f7xx_hal_pwr.o
 .ARM.attributes
                0x0000019c       0x37 Drivers\STM32F7xx_HAL_Driver\Src\stm32f7xx_hal_pwr_ex.o
 .ARM.attributes
                0x000001d3       0x37 Drivers\STM32F7xx_HAL_Driver\Src\stm32f7xx_hal_rcc.o
 .ARM.attributes
                0x0000020a       0x37 Drivers\STM32F7xx_HAL_Driver\Src\stm32f7xx_hal_rcc_ex.o
 .ARM.attributes
                0x00000241       0x37 Drivers\STM32F7xx_HAL_Driver\Src\stm32f7xx_hal_rtc.o
 .ARM.attributes
                0x00000278       0x37 Drivers\STM32F7xx_HAL_Driver\Src\stm32f7xx_hal_rtc_ex.o
 .ARM.attributes
                0x000002af       0x37 Drivers\STM32F7xx_HAL_Driver\Src\stm32f7xx_hal_sd.o
 .ARM.attributes
                0x000002e6       0x37 Drivers\STM32F7xx_HAL_Driver\Src\stm32f7xx_hal_uart.o
 .ARM.attributes
                0x0000031d       0x37 Drivers\STM32F7xx_HAL_Driver\Src\stm32f7xx_ll_sdmmc.o
 .ARM.attributes
                0x00000354       0x37 Middlewares\Third_Party\FatFs\src\diskio.o
 .ARM.attributes
                0x0000038b       0x37 Middlewares\Third_Party\FatFs\src\ff.o
 .ARM.attributes
                0x000003c2       0x37 Middlewares\Third_Party\FatFs\src\ff_gen_drv.o
 .ARM.attributes
                0x000003f9       0x37 Middlewares\Third_Party\FatFs\src\option\ccsbcs.o
 .ARM.attributes
                0x00000430       0x37 Src\bsp_driver_sd.o
 .ARM.attributes
                0x00000467       0x37 Src\can.o
 .ARM.attributes
                0x0000049e       0x37 Src\dma.o
 .ARM.attributes
                0x000004d5       0x37 Src\fatfs.o
 .ARM.attributes
                0x0000050c       0x37 Src\gpio.o
 .ARM.attributes
                0x00000543       0x37 Src\main.o
 .ARM.attributes
                0x0000057a       0x37 Src\rtc.o
 .ARM.attributes
                0x000005b1       0x37 Src\sd_diskio.o
 .ARM.attributes
                0x000005e8       0x37 Src\sdmmc.o
 .ARM.attributes
                0x0000061f       0x37 Src\stm32f7xx_hal_msp.o
 .ARM.attributes
                0x00000656       0x37 Src\stm32f7xx_it.o
 .ARM.attributes
                0x0000068d       0x37 Src\syscalls.o
 .ARM.attributes
                0x000006c4       0x37 Src\system_stm32f7xx.o
 .ARM.attributes
                0x000006fb       0x37 Src\usart.o
 .ARM.attributes
                0x00000732       0x37 Src\user\action_scheduler.o
 .ARM.attributes
                0x00000769       0x37 Src\user\can_receiver.o
 .ARM.attributes
                0x000007a0       0x37 Src\user\can_transceiver_driver.o
 .ARM.attributes
                0x000007d7       0x37 Src\user\config.o
 .ARM.attributes
                0x0000080e       0x37 Src\user\data_saver.o
 .ARM.attributes
                0x00000845       0x37 Src\user\do_driver.o
 .ARM.attributes
                0x0000087c       0x37 Src\user\fifo_queue.o
 .ARM.attributes
                0x000008b3       0x37 Src\user\fifo_queue_multiread.o
 .ARM.attributes
                0x000008ea       0x37 Src\user\file_reading_buffer.o
 .ARM.attributes
                0x00000921       0x37 Src\user\file_system_wrapper.o
 .ARM.attributes
                0x00000958       0x37 Src\user\file_writing_buffer.o
 .ARM.attributes
                0x0000098f       0x37 Src\user\fixed_point.o
 .ARM.attributes
                0x000009c6       0x37 Src\user\led_driver.o
 .ARM.attributes
                0x000009fd       0x37 Src\user\ms_timer_driver.o
 .ARM.attributes
                0x00000a34       0x37 Src\user\rtc_driver.o
 .ARM.attributes
                0x00000a6b       0x37 Src\user\string_operations.o
 .ARM.attributes
                0x00000aa2       0x37 Src\user\uart_driver.o
 .ARM.attributes
                0x00000ad9       0x37 Src\user\uart_receiver_start_length.o
 .ARM.attributes
                0x00000b10       0x37 Src\user\uart_receiver_start_term.o
 .ARM.attributes
                0x00000b47       0x37 Src\user\ublox_m8_gps_driver.o
 .ARM.attributes
                0x00000b7e       0x21 startup\startup_stm32f767xx.o
 .ARM.attributes
                0x00000b9f       0x32 c:/program files (x86)/atollic/truestudio for stm32 9.2.0/armtools/bin/../lib/gcc/arm-atollic-eabi/6.3.1/../../../../arm-atollic-eabi/lib/armv7e-m/fpu/fpv5-d16\libc_nano.a(lib_a-errno.o)
 .ARM.attributes
                0x00000bd1       0x32 c:/program files (x86)/atollic/truestudio for stm32 9.2.0/armtools/bin/../lib/gcc/arm-atollic-eabi/6.3.1/../../../../arm-atollic-eabi/lib/armv7e-m/fpu/fpv5-d16\libc_nano.a(lib_a-impure.o)
 .ARM.attributes
                0x00000c03       0x32 c:/program files (x86)/atollic/truestudio for stm32 9.2.0/armtools/bin/../lib/gcc/arm-atollic-eabi/6.3.1/../../../../arm-atollic-eabi/lib/armv7e-m/fpu/fpv5-d16\libc_nano.a(lib_a-init.o)
 .ARM.attributes
                0x00000c35       0x32 c:/program files (x86)/atollic/truestudio for stm32 9.2.0/armtools/bin/../lib/gcc/arm-atollic-eabi/6.3.1/../../../../arm-atollic-eabi/lib/armv7e-m/fpu/fpv5-d16\libc_nano.a(lib_a-memcpy-stub.o)
 .ARM.attributes
                0x00000c67       0x32 c:/program files (x86)/atollic/truestudio for stm32 9.2.0/armtools/bin/../lib/gcc/arm-atollic-eabi/6.3.1/../../../../arm-atollic-eabi/lib/armv7e-m/fpu/fpv5-d16\libc_nano.a(lib_a-memset.o)
 .ARM.attributes
                0x00000c99       0x32 c:/program files (x86)/atollic/truestudio for stm32 9.2.0/armtools/bin/../lib/gcc/arm-atollic-eabi/6.3.1/../../../../arm-atollic-eabi/lib/armv7e-m/fpu/fpv5-d16\libc_nano.a(lib_a-sprintf.o)
 .ARM.attributes
                0x00000ccb       0x19 c:/program files (x86)/atollic/truestudio for stm32 9.2.0/armtools/bin/../lib/gcc/arm-atollic-eabi/6.3.1/../../../../arm-atollic-eabi/lib/armv7e-m/fpu/fpv5-d16\libc_nano.a(lib_a-strlen.o)
 .ARM.attributes
                0x00000ce4       0x32 c:/program files (x86)/atollic/truestudio for stm32 9.2.0/armtools/bin/../lib/gcc/arm-atollic-eabi/6.3.1/../../../../arm-atollic-eabi/lib/armv7e-m/fpu/fpv5-d16\libc_nano.a(lib_a-nano-svfprintf.o)
 .ARM.attributes
                0x00000d16       0x32 c:/program files (x86)/atollic/truestudio for stm32 9.2.0/armtools/bin/../lib/gcc/arm-atollic-eabi/6.3.1/../../../../arm-atollic-eabi/lib/armv7e-m/fpu/fpv5-d16\libc_nano.a(lib_a-nano-vfprintf_i.o)
 .ARM.attributes
                0x00000d48       0x1e c:/program files (x86)/atollic/truestudio for stm32 9.2.0/armtools/bin/../lib/gcc/arm-atollic-eabi/6.3.1/../../../../arm-atollic-eabi/lib/armv7e-m/fpu/fpv5-d16\libc_nano.a(lib_a-memchr.o)
 .ARM.attributes
                0x00000d66       0x32 c:/program files (x86)/atollic/truestudio for stm32 9.2.0/armtools/bin/../lib/gcc/arm-atollic-eabi/6.3.1/../../../../arm-atollic-eabi/lib/armv7e-m/fpu/fpv5-d16\libc_nano.a(lib_a-memmove.o)
 .ARM.attributes
                0x00000d98       0x32 c:/program files (x86)/atollic/truestudio for stm32 9.2.0/armtools/bin/../lib/gcc/arm-atollic-eabi/6.3.1/../../../../arm-atollic-eabi/lib/armv7e-m/fpu/fpv5-d16\libc_nano.a(lib_a-nano-freer.o)
 .ARM.attributes
                0x00000dca       0x32 c:/program files (x86)/atollic/truestudio for stm32 9.2.0/armtools/bin/../lib/gcc/arm-atollic-eabi/6.3.1/../../../../arm-atollic-eabi/lib/armv7e-m/fpu/fpv5-d16\libc_nano.a(lib_a-nano-mallocr.o)
 .ARM.attributes
                0x00000dfc       0x32 c:/program files (x86)/atollic/truestudio for stm32 9.2.0/armtools/bin/../lib/gcc/arm-atollic-eabi/6.3.1/../../../../arm-atollic-eabi/lib/armv7e-m/fpu/fpv5-d16\libc_nano.a(lib_a-nano-reallocr.o)
 .ARM.attributes
                0x00000e2e       0x32 c:/program files (x86)/atollic/truestudio for stm32 9.2.0/armtools/bin/../lib/gcc/arm-atollic-eabi/6.3.1/../../../../arm-atollic-eabi/lib/armv7e-m/fpu/fpv5-d16\libc_nano.a(lib_a-sbrkr.o)
 .ARM.attributes
                0x00000e60       0x32 c:/program files (x86)/atollic/truestudio for stm32 9.2.0/armtools/bin/../lib/gcc/arm-atollic-eabi/6.3.1/../../../../arm-atollic-eabi/lib/armv7e-m/fpu/fpv5-d16\libc_nano.a(lib_a-mlock.o)
 .ARM.attributes
                0x00000e92       0x32 c:/program files (x86)/atollic/truestudio for stm32 9.2.0/armtools/bin/../lib/gcc/arm-atollic-eabi/6.3.1/../../../../arm-atollic-eabi/lib/armv7e-m/fpu/fpv5-d16\libc_nano.a(lib_a-nano-msizer.o)
 .ARM.attributes
                0x00000ec4       0x32 c:/program files (x86)/atollic/truestudio for stm32 9.2.0/armtools/bin/../lib/gcc/arm-atollic-eabi/6.3.1/../../../../arm-atollic-eabi/lib/armv7e-m/fpu/fpv5-d16\libc_nano.a(lib_a-reent.o)
 .ARM.attributes
                0x00000ef6       0x20 c:/program files (x86)/atollic/truestudio for stm32 9.2.0/armtools/bin/../lib/gcc/arm-atollic-eabi/6.3.1/armv7e-m/fpu/fpv5-d16\libgcc.a(_aeabi_uldivmod.o)
 .ARM.attributes
                0x00000f16       0x32 c:/program files (x86)/atollic/truestudio for stm32 9.2.0/armtools/bin/../lib/gcc/arm-atollic-eabi/6.3.1/armv7e-m/fpu/fpv5-d16\libgcc.a(_udivmoddi4.o)
 .ARM.attributes
                0x00000f48       0x20 c:/program files (x86)/atollic/truestudio for stm32 9.2.0/armtools/bin/../lib/gcc/arm-atollic-eabi/6.3.1/armv7e-m/fpu/fpv5-d16\libgcc.a(_dvmd_tls.o)
 .ARM.attributes
                0x00000f68       0x20 c:/program files (x86)/atollic/truestudio for stm32 9.2.0/armtools/bin/../lib/gcc/arm-atollic-eabi/6.3.1/armv7e-m/fpu/fpv5-d16/crtn.o
OUTPUT(DataLoggerGPS.elf elf32-littlearm)

.debug_info     0x00000000    0x33bf4
 .debug_info    0x00000000      0xa37 Drivers\STM32F7xx_HAL_Driver\Src\stm32f7xx_hal.o
 .debug_info    0x00000a37      0xfbb Drivers\STM32F7xx_HAL_Driver\Src\stm32f7xx_hal_can.o
 .debug_info    0x000019f2     0x108c Drivers\STM32F7xx_HAL_Driver\Src\stm32f7xx_hal_cortex.o
 .debug_info    0x00002a7e      0x964 Drivers\STM32F7xx_HAL_Driver\Src\stm32f7xx_hal_dma.o
 .debug_info    0x000033e2      0x7e8 Drivers\STM32F7xx_HAL_Driver\Src\stm32f7xx_hal_gpio.o
 .debug_info    0x00003bca      0x9b5 Drivers\STM32F7xx_HAL_Driver\Src\stm32f7xx_hal_pwr.o
 .debug_info    0x0000457f      0x96b Drivers\STM32F7xx_HAL_Driver\Src\stm32f7xx_hal_pwr_ex.o
 .debug_info    0x00004eea      0x987 Drivers\STM32F7xx_HAL_Driver\Src\stm32f7xx_hal_rcc.o
 .debug_info    0x00005871      0x7d1 Drivers\STM32F7xx_HAL_Driver\Src\stm32f7xx_hal_rcc_ex.o
 .debug_info    0x00006042      0xc54 Drivers\STM32F7xx_HAL_Driver\Src\stm32f7xx_hal_rtc.o
 .debug_info    0x00006c96      0xff5 Drivers\STM32F7xx_HAL_Driver\Src\stm32f7xx_hal_rtc_ex.o
 .debug_info    0x00007c8b     0x17c4 Drivers\STM32F7xx_HAL_Driver\Src\stm32f7xx_hal_sd.o
 .debug_info    0x0000944f     0x1636 Drivers\STM32F7xx_HAL_Driver\Src\stm32f7xx_hal_uart.o
 .debug_info    0x0000aa85     0x10bd Drivers\STM32F7xx_HAL_Driver\Src\stm32f7xx_ll_sdmmc.o
 .debug_info    0x0000bb42      0xcdd Middlewares\Third_Party\FatFs\src\diskio.o
 .debug_info    0x0000c81f     0x2e21 Middlewares\Third_Party\FatFs\src\ff.o
 .debug_info    0x0000f640      0xc75 Middlewares\Third_Party\FatFs\src\ff_gen_drv.o
 .debug_info    0x000102b5      0xac9 Middlewares\Third_Party\FatFs\src\option\ccsbcs.o
 .debug_info    0x00010d7e      0xa71 Src\bsp_driver_sd.o
 .debug_info    0x000117ef      0xb9c Src\can.o
 .debug_info    0x0001238b      0x634 Src\dma.o
 .debug_info    0x000129bf      0xd97 Src\fatfs.o
 .debug_info    0x00013756      0x50c Src\gpio.o
 .debug_info    0x00013c62     0x3f86 Src\main.o
 .debug_info    0x00017be8      0x871 Src\rtc.o
 .debug_info    0x00018459      0xe21 Src\sd_diskio.o
 .debug_info    0x0001927a      0xdb1 Src\sdmmc.o
 .debug_info    0x0001a02b      0x38b Src\stm32f7xx_hal_msp.o
 .debug_info    0x0001a3b6      0xf24 Src\stm32f7xx_it.o
 .debug_info    0x0001b2da      0xf16 Src\syscalls.o
 .debug_info    0x0001c1f0      0x73f Src\system_stm32f7xx.o
 .debug_info    0x0001c92f      0xd1d Src\usart.o
 .debug_info    0x0001d64c     0x2f5e Src\user\action_scheduler.o
 .debug_info    0x000205aa     0x1563 Src\user\can_receiver.o
 .debug_info    0x00021b0d     0x16a8 Src\user\can_transceiver_driver.o
 .debug_info    0x000231b5     0x139a Src\user\config.o
 .debug_info    0x0002454f     0x1846 Src\user\data_saver.o
 .debug_info    0x00025d95      0x3da Src\user\do_driver.o
 .debug_info    0x0002616f      0xb1c Src\user\fifo_queue.o
 .debug_info    0x00026c8b      0xec1 Src\user\fifo_queue_multiread.o
 .debug_info    0x00027b4c      0xfde Src\user\file_reading_buffer.o
 .debug_info    0x00028b2a      0xfb0 Src\user\file_system_wrapper.o
 .debug_info    0x00029ada     0x10d0 Src\user\file_writing_buffer.o
 .debug_info    0x0002abaa      0x356 Src\user\fixed_point.o
 .debug_info    0x0002af00      0x41c Src\user\led_driver.o
 .debug_info    0x0002b31c      0x2ee Src\user\ms_timer_driver.o
 .debug_info    0x0002b60a      0x9e4 Src\user\rtc_driver.o
 .debug_info    0x0002bfee      0xe78 Src\user\string_operations.o
 .debug_info    0x0002ce66     0x193f Src\user\uart_driver.o
 .debug_info    0x0002e7a5     0x1754 Src\user\uart_receiver_start_length.o
 .debug_info    0x0002fef9     0x1687 Src\user\uart_receiver_start_term.o
 .debug_info    0x00031580     0x25e5 Src\user\ublox_m8_gps_driver.o
 .debug_info    0x00033b65       0x8f startup\startup_stm32f767xx.o

.debug_abbrev   0x00000000     0x6655
 .debug_abbrev  0x00000000      0x1c2 Drivers\STM32F7xx_HAL_Driver\Src\stm32f7xx_hal.o
 .debug_abbrev  0x000001c2      0x225 Drivers\STM32F7xx_HAL_Driver\Src\stm32f7xx_hal_can.o
 .debug_abbrev  0x000003e7      0x2f5 Drivers\STM32F7xx_HAL_Driver\Src\stm32f7xx_hal_cortex.o
 .debug_abbrev  0x000006dc      0x224 Drivers\STM32F7xx_HAL_Driver\Src\stm32f7xx_hal_dma.o
 .debug_abbrev  0x00000900      0x1c4 Drivers\STM32F7xx_HAL_Driver\Src\stm32f7xx_hal_gpio.o
 .debug_abbrev  0x00000ac4      0x1b1 Drivers\STM32F7xx_HAL_Driver\Src\stm32f7xx_hal_pwr.o
 .debug_abbrev  0x00000c75      0x1b3 Drivers\STM32F7xx_HAL_Driver\Src\stm32f7xx_hal_pwr_ex.o
 .debug_abbrev  0x00000e28      0x263 Drivers\STM32F7xx_HAL_Driver\Src\stm32f7xx_hal_rcc.o
 .debug_abbrev  0x0000108b      0x1a8 Drivers\STM32F7xx_HAL_Driver\Src\stm32f7xx_hal_rcc_ex.o
 .debug_abbrev  0x00001233      0x1b9 Drivers\STM32F7xx_HAL_Driver\Src\stm32f7xx_hal_rtc.o
 .debug_abbrev  0x000013ec      0x1e4 Drivers\STM32F7xx_HAL_Driver\Src\stm32f7xx_hal_rtc_ex.o
 .debug_abbrev  0x000015d0      0x238 Drivers\STM32F7xx_HAL_Driver\Src\stm32f7xx_hal_sd.o
 .debug_abbrev  0x00001808      0x200 Drivers\STM32F7xx_HAL_Driver\Src\stm32f7xx_hal_uart.o
 .debug_abbrev  0x00001a08      0x1c8 Drivers\STM32F7xx_HAL_Driver\Src\stm32f7xx_ll_sdmmc.o
 .debug_abbrev  0x00001bd0      0x204 Middlewares\Third_Party\FatFs\src\diskio.o
 .debug_abbrev  0x00001dd4      0x293 Middlewares\Third_Party\FatFs\src\ff.o
 .debug_abbrev  0x00002067      0x231 Middlewares\Third_Party\FatFs\src\ff_gen_drv.o
 .debug_abbrev  0x00002298      0x1ea Middlewares\Third_Party\FatFs\src\option\ccsbcs.o
 .debug_abbrev  0x00002482      0x22f Src\bsp_driver_sd.o
 .debug_abbrev  0x000026b1      0x1b1 Src\can.o
 .debug_abbrev  0x00002862      0x102 Src\dma.o
 .debug_abbrev  0x00002964      0x1da Src\fatfs.o
 .debug_abbrev  0x00002b3e      0x12f Src\gpio.o
 .debug_abbrev  0x00002c6d      0x2f9 Src\main.o
 .debug_abbrev  0x00002f66      0x14b Src\rtc.o
 .debug_abbrev  0x000030b1      0x291 Src\sd_diskio.o
 .debug_abbrev  0x00003342      0x1ae Src\sdmmc.o
 .debug_abbrev  0x000034f0      0x104 Src\stm32f7xx_hal_msp.o
 .debug_abbrev  0x000035f4      0x196 Src\stm32f7xx_it.o
 .debug_abbrev  0x0000378a      0x271 Src\syscalls.o
 .debug_abbrev  0x000039fb      0x142 Src\system_stm32f7xx.o
 .debug_abbrev  0x00003b3d      0x1ae Src\usart.o
 .debug_abbrev  0x00003ceb      0x2ae Src\user\action_scheduler.o
 .debug_abbrev  0x00003f99      0x277 Src\user\can_receiver.o
 .debug_abbrev  0x00004210      0x2ec Src\user\can_transceiver_driver.o
 .debug_abbrev  0x000044fc      0x253 Src\user\config.o
 .debug_abbrev  0x0000474f      0x237 Src\user\data_saver.o
 .debug_abbrev  0x00004986      0x151 Src\user\do_driver.o
 .debug_abbrev  0x00004ad7      0x1cd Src\user\fifo_queue.o
 .debug_abbrev  0x00004ca4      0x259 Src\user\fifo_queue_multiread.o
 .debug_abbrev  0x00004efd      0x221 Src\user\file_reading_buffer.o
 .debug_abbrev  0x0000511e      0x201 Src\user\file_system_wrapper.o
 .debug_abbrev  0x0000531f      0x221 Src\user\file_writing_buffer.o
 .debug_abbrev  0x00005540       0xe1 Src\user\fixed_point.o
 .debug_abbrev  0x00005621      0x151 Src\user\led_driver.o
 .debug_abbrev  0x00005772      0x117 Src\user\ms_timer_driver.o
 .debug_abbrev  0x00005889      0x19d Src\user\rtc_driver.o
 .debug_abbrev  0x00005a26      0x1dd Src\user\string_operations.o
 .debug_abbrev  0x00005c03      0x2f0 Src\user\uart_driver.o
 .debug_abbrev  0x00005ef3      0x269 Src\user\uart_receiver_start_length.o
 .debug_abbrev  0x0000615c      0x244 Src\user\uart_receiver_start_term.o
 .debug_abbrev  0x000063a0      0x2a3 Src\user\ublox_m8_gps_driver.o
 .debug_abbrev  0x00006643       0x12 startup\startup_stm32f767xx.o

.debug_aranges  0x00000000     0x1c30
 .debug_aranges
                0x00000000      0x110 Drivers\STM32F7xx_HAL_Driver\Src\stm32f7xx_hal.o
 .debug_aranges
                0x00000110      0x138 Drivers\STM32F7xx_HAL_Driver\Src\stm32f7xx_hal_can.o
 .debug_aranges
                0x00000248      0x118 Drivers\STM32F7xx_HAL_Driver\Src\stm32f7xx_hal_cortex.o
 .debug_aranges
                0x00000360       0x90 Drivers\STM32F7xx_HAL_Driver\Src\stm32f7xx_hal_dma.o
 .debug_aranges
                0x000003f0       0x58 Drivers\STM32F7xx_HAL_Driver\Src\stm32f7xx_hal_gpio.o
 .debug_aranges
                0x00000448       0xa0 Drivers\STM32F7xx_HAL_Driver\Src\stm32f7xx_hal_pwr.o
 .debug_aranges
                0x000004e8       0x80 Drivers\STM32F7xx_HAL_Driver\Src\stm32f7xx_hal_pwr_ex.o
 .debug_aranges
                0x00000568       0x88 Drivers\STM32F7xx_HAL_Driver\Src\stm32f7xx_hal_rcc.o
 .debug_aranges
                0x000005f0       0x50 Drivers\STM32F7xx_HAL_Driver\Src\stm32f7xx_hal_rcc_ex.o
 .debug_aranges
                0x00000640       0xb8 Drivers\STM32F7xx_HAL_Driver\Src\stm32f7xx_hal_rtc.o
 .debug_aranges
                0x000006f8      0x140 Drivers\STM32F7xx_HAL_Driver\Src\stm32f7xx_hal_rtc_ex.o
 .debug_aranges
                0x00000838      0x168 Drivers\STM32F7xx_HAL_Driver\Src\stm32f7xx_hal_sd.o
 .debug_aranges
                0x000009a0      0x1f8 Drivers\STM32F7xx_HAL_Driver\Src\stm32f7xx_hal_uart.o
 .debug_aranges
                0x00000b98      0x178 Drivers\STM32F7xx_HAL_Driver\Src\stm32f7xx_ll_sdmmc.o
 .debug_aranges
                0x00000d10       0x48 Middlewares\Third_Party\FatFs\src\diskio.o
 .debug_aranges
                0x00000d58      0x230 Middlewares\Third_Party\FatFs\src\ff.o
 .debug_aranges
                0x00000f88       0x40 Middlewares\Third_Party\FatFs\src\ff_gen_drv.o
 .debug_aranges
                0x00000fc8       0x28 Middlewares\Third_Party\FatFs\src\option\ccsbcs.o
 .debug_aranges
                0x00000ff0       0x98 Src\bsp_driver_sd.o
 .debug_aranges
                0x00001088       0x30 Src\can.o
 .debug_aranges
                0x000010b8       0x20 Src\dma.o
 .debug_aranges
                0x000010d8       0x28 Src\fatfs.o
 .debug_aranges
                0x00001100       0x20 Src\gpio.o
 .debug_aranges
                0x00001120       0x50 Src\main.o
 .debug_aranges
                0x00001170       0x30 Src\rtc.o
 .debug_aranges
                0x000011a0       0x60 Src\sd_diskio.o
 .debug_aranges
                0x00001200       0x30 Src\sdmmc.o
 .debug_aranges
                0x00001230       0x20 Src\stm32f7xx_hal_msp.o
 .debug_aranges
                0x00001250       0xb0 Src\stm32f7xx_it.o
 .debug_aranges
                0x00001300       0xb0 Src\syscalls.o
 .debug_aranges
                0x000013b0       0x28 Src\system_stm32f7xx.o
 .debug_aranges
                0x000013d8       0x30 Src\usart.o
 .debug_aranges
                0x00001408       0x68 Src\user\action_scheduler.o
 .debug_aranges
                0x00001470       0x58 Src\user\can_receiver.o
 .debug_aranges
                0x000014c8       0x80 Src\user\can_transceiver_driver.o
 .debug_aranges
                0x00001548       0x58 Src\user\config.o
 .debug_aranges
                0x000015a0       0x48 Src\user\data_saver.o
 .debug_aranges
                0x000015e8       0x38 Src\user\do_driver.o
 .debug_aranges
                0x00001620       0x50 Src\user\fifo_queue.o
 .debug_aranges
                0x00001670       0x68 Src\user\fifo_queue_multiread.o
 .debug_aranges
                0x000016d8       0x50 Src\user\file_reading_buffer.o
 .debug_aranges
                0x00001728       0x58 Src\user\file_system_wrapper.o
 .debug_aranges
                0x00001780       0x78 Src\user\file_writing_buffer.o
 .debug_aranges
                0x000017f8       0x58 Src\user\fixed_point.o
 .debug_aranges
                0x00001850       0x40 Src\user\led_driver.o
 .debug_aranges
                0x00001890       0x40 Src\user\ms_timer_driver.o
 .debug_aranges
                0x000018d0       0x58 Src\user\rtc_driver.o
 .debug_aranges
                0x00001928       0x90 Src\user\string_operations.o
 .debug_aranges
                0x000019b8       0xd0 Src\user\uart_driver.o
 .debug_aranges
                0x00001a88       0x58 Src\user\uart_receiver_start_length.o
 .debug_aranges
                0x00001ae0       0x50 Src\user\uart_receiver_start_term.o
 .debug_aranges
                0x00001b30       0xd8 Src\user\ublox_m8_gps_driver.o
 .debug_aranges
                0x00001c08       0x28 startup\startup_stm32f767xx.o

.debug_ranges   0x00000000     0x1900
 .debug_ranges  0x00000000      0x100 Drivers\STM32F7xx_HAL_Driver\Src\stm32f7xx_hal.o
 .debug_ranges  0x00000100      0x128 Drivers\STM32F7xx_HAL_Driver\Src\stm32f7xx_hal_can.o
 .debug_ranges  0x00000228      0x108 Drivers\STM32F7xx_HAL_Driver\Src\stm32f7xx_hal_cortex.o
 .debug_ranges  0x00000330       0x80 Drivers\STM32F7xx_HAL_Driver\Src\stm32f7xx_hal_dma.o
 .debug_ranges  0x000003b0       0x48 Drivers\STM32F7xx_HAL_Driver\Src\stm32f7xx_hal_gpio.o
 .debug_ranges  0x000003f8       0x90 Drivers\STM32F7xx_HAL_Driver\Src\stm32f7xx_hal_pwr.o
 .debug_ranges  0x00000488       0x70 Drivers\STM32F7xx_HAL_Driver\Src\stm32f7xx_hal_pwr_ex.o
 .debug_ranges  0x000004f8       0x78 Drivers\STM32F7xx_HAL_Driver\Src\stm32f7xx_hal_rcc.o
 .debug_ranges  0x00000570       0x40 Drivers\STM32F7xx_HAL_Driver\Src\stm32f7xx_hal_rcc_ex.o
 .debug_ranges  0x000005b0       0xa8 Drivers\STM32F7xx_HAL_Driver\Src\stm32f7xx_hal_rtc.o
 .debug_ranges  0x00000658      0x130 Drivers\STM32F7xx_HAL_Driver\Src\stm32f7xx_hal_rtc_ex.o
 .debug_ranges  0x00000788      0x158 Drivers\STM32F7xx_HAL_Driver\Src\stm32f7xx_hal_sd.o
 .debug_ranges  0x000008e0      0x1e8 Drivers\STM32F7xx_HAL_Driver\Src\stm32f7xx_hal_uart.o
 .debug_ranges  0x00000ac8      0x168 Drivers\STM32F7xx_HAL_Driver\Src\stm32f7xx_ll_sdmmc.o
 .debug_ranges  0x00000c30       0x38 Middlewares\Third_Party\FatFs\src\diskio.o
 .debug_ranges  0x00000c68      0x220 Middlewares\Third_Party\FatFs\src\ff.o
 .debug_ranges  0x00000e88       0x30 Middlewares\Third_Party\FatFs\src\ff_gen_drv.o
 .debug_ranges  0x00000eb8       0x18 Middlewares\Third_Party\FatFs\src\option\ccsbcs.o
 .debug_ranges  0x00000ed0       0x88 Src\bsp_driver_sd.o
 .debug_ranges  0x00000f58       0x20 Src\can.o
 .debug_ranges  0x00000f78       0x10 Src\dma.o
 .debug_ranges  0x00000f88       0x18 Src\fatfs.o
 .debug_ranges  0x00000fa0       0x10 Src\gpio.o
 .debug_ranges  0x00000fb0       0x40 Src\main.o
 .debug_ranges  0x00000ff0       0x20 Src\rtc.o
 .debug_ranges  0x00001010       0x50 Src\sd_diskio.o
 .debug_ranges  0x00001060       0x20 Src\sdmmc.o
 .debug_ranges  0x00001080       0x10 Src\stm32f7xx_hal_msp.o
 .debug_ranges  0x00001090       0xa0 Src\stm32f7xx_it.o
 .debug_ranges  0x00001130       0xa0 Src\syscalls.o
 .debug_ranges  0x000011d0       0x18 Src\system_stm32f7xx.o
 .debug_ranges  0x000011e8       0x20 Src\usart.o
 .debug_ranges  0x00001208       0x58 Src\user\action_scheduler.o
 .debug_ranges  0x00001260       0x48 Src\user\can_receiver.o
 .debug_ranges  0x000012a8       0x70 Src\user\can_transceiver_driver.o
 .debug_ranges  0x00001318       0x48 Src\user\config.o
 .debug_ranges  0x00001360       0x38 Src\user\data_saver.o
 .debug_ranges  0x00001398       0x28 Src\user\do_driver.o
 .debug_ranges  0x000013c0       0x40 Src\user\fifo_queue.o
 .debug_ranges  0x00001400       0x58 Src\user\fifo_queue_multiread.o
 .debug_ranges  0x00001458       0x40 Src\user\file_reading_buffer.o
 .debug_ranges  0x00001498       0x48 Src\user\file_system_wrapper.o
 .debug_ranges  0x000014e0       0x68 Src\user\file_writing_buffer.o
 .debug_ranges  0x00001548       0x48 Src\user\fixed_point.o
 .debug_ranges  0x00001590       0x30 Src\user\led_driver.o
 .debug_ranges  0x000015c0       0x30 Src\user\ms_timer_driver.o
 .debug_ranges  0x000015f0       0x48 Src\user\rtc_driver.o
 .debug_ranges  0x00001638       0x80 Src\user\string_operations.o
 .debug_ranges  0x000016b8       0xd8 Src\user\uart_driver.o
 .debug_ranges  0x00001790       0x48 Src\user\uart_receiver_start_length.o
 .debug_ranges  0x000017d8       0x40 Src\user\uart_receiver_start_term.o
 .debug_ranges  0x00001818       0xc8 Src\user\ublox_m8_gps_driver.o
 .debug_ranges  0x000018e0       0x20 startup\startup_stm32f767xx.o

.debug_line     0x00000000    0x103c9
 .debug_line    0x00000000      0x454 Drivers\STM32F7xx_HAL_Driver\Src\stm32f7xx_hal.o
 .debug_line    0x00000454      0x6f1 Drivers\STM32F7xx_HAL_Driver\Src\stm32f7xx_hal_can.o
 .debug_line    0x00000b45      0x553 Drivers\STM32F7xx_HAL_Driver\Src\stm32f7xx_hal_cortex.o
 .debug_line    0x00001098      0x505 Drivers\STM32F7xx_HAL_Driver\Src\stm32f7xx_hal_dma.o
 .debug_line    0x0000159d      0x43f Drivers\STM32F7xx_HAL_Driver\Src\stm32f7xx_hal_gpio.o
 .debug_line    0x000019dc      0x396 Drivers\STM32F7xx_HAL_Driver\Src\stm32f7xx_hal_pwr.o
 .debug_line    0x00001d72      0x363 Drivers\STM32F7xx_HAL_Driver\Src\stm32f7xx_hal_pwr_ex.o
 .debug_line    0x000020d5      0x50d Drivers\STM32F7xx_HAL_Driver\Src\stm32f7xx_hal_rcc.o
 .debug_line    0x000025e2      0x45f Drivers\STM32F7xx_HAL_Driver\Src\stm32f7xx_hal_rcc_ex.o
 .debug_line    0x00002a41      0x5c1 Drivers\STM32F7xx_HAL_Driver\Src\stm32f7xx_hal_rtc.o
 .debug_line    0x00003002      0x9aa Drivers\STM32F7xx_HAL_Driver\Src\stm32f7xx_hal_rtc_ex.o
 .debug_line    0x000039ac      0xa51 Drivers\STM32F7xx_HAL_Driver\Src\stm32f7xx_hal_sd.o
 .debug_line    0x000043fd      0xd54 Drivers\STM32F7xx_HAL_Driver\Src\stm32f7xx_hal_uart.o
 .debug_line    0x00005151      0x6ab Drivers\STM32F7xx_HAL_Driver\Src\stm32f7xx_ll_sdmmc.o
 .debug_line    0x000057fc      0x370 Middlewares\Third_Party\FatFs\src\diskio.o
 .debug_line    0x00005b6c     0x19f0 Middlewares\Third_Party\FatFs\src\ff.o
 .debug_line    0x0000755c      0x36e Middlewares\Third_Party\FatFs\src\ff_gen_drv.o
 .debug_line    0x000078ca      0x39c Middlewares\Third_Party\FatFs\src\option\ccsbcs.o
 .debug_line    0x00007c66      0x359 Src\bsp_driver_sd.o
 .debug_line    0x00007fbf      0x279 Src\can.o
 .debug_line    0x00008238      0x1d9 Src\dma.o
 .debug_line    0x00008411      0x34d Src\fatfs.o
 .debug_line    0x0000875e      0x203 Src\gpio.o
 .debug_line    0x00008961      0x7ae Src\main.o
 .debug_line    0x0000910f      0x252 Src\rtc.o
 .debug_line    0x00009361      0x4a3 Src\sd_diskio.o
 .debug_line    0x00009804      0x2bc Src\sdmmc.o
 .debug_line    0x00009ac0      0x1e7 Src\stm32f7xx_hal_msp.o
 .debug_line    0x00009ca7      0x3c5 Src\stm32f7xx_it.o
 .debug_line    0x0000a06c      0x3d8 Src\syscalls.o
 .debug_line    0x0000a444      0x20e Src\system_stm32f7xx.o
 .debug_line    0x0000a652      0x290 Src\usart.o
 .debug_line    0x0000a8e2      0x6fb Src\user\action_scheduler.o
 .debug_line    0x0000afdd      0x458 Src\user\can_receiver.o
 .debug_line    0x0000b435      0x570 Src\user\can_transceiver_driver.o
 .debug_line    0x0000b9a5      0x491 Src\user\config.o
 .debug_line    0x0000be36      0x51a Src\user\data_saver.o
 .debug_line    0x0000c350      0x26d Src\user\do_driver.o
 .debug_line    0x0000c5bd      0x2a5 Src\user\fifo_queue.o
 .debug_line    0x0000c862      0x481 Src\user\fifo_queue_multiread.o
 .debug_line    0x0000cce3      0x405 Src\user\file_reading_buffer.o
 .debug_line    0x0000d0e8      0x413 Src\user\file_system_wrapper.o
 .debug_line    0x0000d4fb      0x484 Src\user\file_writing_buffer.o
 .debug_line    0x0000d97f      0x255 Src\user\fixed_point.o
 .debug_line    0x0000dbd4      0x27a Src\user\led_driver.o
 .debug_line    0x0000de4e      0x273 Src\user\ms_timer_driver.o
 .debug_line    0x0000e0c1      0x3d2 Src\user\rtc_driver.o
 .debug_line    0x0000e493      0x408 Src\user\string_operations.o
 .debug_line    0x0000e89b      0x6f5 Src\user\uart_driver.o
 .debug_line    0x0000ef90      0x4ec Src\user\uart_receiver_start_length.o
 .debug_line    0x0000f47c      0x4c1 Src\user\uart_receiver_start_term.o
 .debug_line    0x0000f93d      0xa0d Src\user\ublox_m8_gps_driver.o
 .debug_line    0x0001034a       0x7f startup\startup_stm32f767xx.o

.debug_str      0x00000000     0xb028
 .debug_str     0x00000000      0xced Drivers\STM32F7xx_HAL_Driver\Src\stm32f7xx_hal.o
                                0xd5b (size before relaxing)
 .debug_str     0x00000ced      0x7b4 Drivers\STM32F7xx_HAL_Driver\Src\stm32f7xx_hal_can.o
                                0xb3a (size before relaxing)
 .debug_str     0x000014a1      0x5aa Drivers\STM32F7xx_HAL_Driver\Src\stm32f7xx_hal_cortex.o
                                0xf34 (size before relaxing)
 .debug_str     0x00001a4b      0x507 Drivers\STM32F7xx_HAL_Driver\Src\stm32f7xx_hal_dma.o
                                0x855 (size before relaxing)
 .debug_str     0x00001f52      0x1a0 Drivers\STM32F7xx_HAL_Driver\Src\stm32f7xx_hal_gpio.o
                                0x5f8 (size before relaxing)
 .debug_str     0x000020f2      0x22e Drivers\STM32F7xx_HAL_Driver\Src\stm32f7xx_hal_pwr.o
                                0x738 (size before relaxing)
 .debug_str     0x00002320      0x1e4 Drivers\STM32F7xx_HAL_Driver\Src\stm32f7xx_hal_pwr_ex.o
                                0x73b (size before relaxing)
 .debug_str     0x00002504      0x305 Drivers\STM32F7xx_HAL_Driver\Src\stm32f7xx_hal_rcc.o
                                0x7b8 (size before relaxing)
 .debug_str     0x00002809      0x3fb Drivers\STM32F7xx_HAL_Driver\Src\stm32f7xx_hal_rcc_ex.o
                                0x828 (size before relaxing)
 .debug_str     0x00002c04      0x4ca Drivers\STM32F7xx_HAL_Driver\Src\stm32f7xx_hal_rtc.o
                                0x853 (size before relaxing)
 .debug_str     0x000030ce      0x5b2 Drivers\STM32F7xx_HAL_Driver\Src\stm32f7xx_hal_rtc_ex.o
                                0xbe0 (size before relaxing)
 .debug_str     0x00003680      0xa0c Drivers\STM32F7xx_HAL_Driver\Src\stm32f7xx_hal_sd.o
                                0xfd8 (size before relaxing)
 .debug_str     0x0000408c      0x824 Drivers\STM32F7xx_HAL_Driver\Src\stm32f7xx_hal_uart.o
                                0xf34 (size before relaxing)
 .debug_str     0x000048b0      0x43c Drivers\STM32F7xx_HAL_Driver\Src\stm32f7xx_ll_sdmmc.o
                                0x8d5 (size before relaxing)
 .debug_str     0x00004cec      0x4c1 Middlewares\Third_Party\FatFs\src\diskio.o
                                0x7dd (size before relaxing)
 .debug_str     0x000051ad      0x615 Middlewares\Third_Party\FatFs\src\ff.o
                                0xd7f (size before relaxing)
 .debug_str     0x000057c2       0xa2 Middlewares\Third_Party\FatFs\src\ff_gen_drv.o
                                0x82e (size before relaxing)
 .debug_str     0x00005864       0x56 Middlewares\Third_Party\FatFs\src\option\ccsbcs.o
                                0x725 (size before relaxing)
 .debug_str     0x000058ba      0x150 Src\bsp_driver_sd.o
                                0x9e2 (size before relaxing)
 .debug_str     0x00005a0a       0x2a Src\can.o
                                0xd44 (size before relaxing)
 .debug_str     0x00005a34       0x19 Src\dma.o
                                0xa11 (size before relaxing)
 .debug_str     0x00005a4d       0x43 Src\fatfs.o
                                0x89e (size before relaxing)
 .debug_str     0x00005a90       0x1b Src\gpio.o
                                0x471 (size before relaxing)
 .debug_str     0x00005aab     0x2b73 Src\main.o
                               0x4ac5 (size before relaxing)
 .debug_str     0x0000861e       0x23 Src\rtc.o
                                0x718 (size before relaxing)
 .debug_str     0x00008641       0x93 Src\sd_diskio.o
                                0x8c7 (size before relaxing)
 .debug_str     0x000086d4       0x48 Src\sdmmc.o
                                0xfa4 (size before relaxing)
 .debug_str     0x0000871c       0x1b Src\stm32f7xx_hal_msp.o
                                0x3e0 (size before relaxing)
 .debug_str     0x00008737      0x17f Src\stm32f7xx_it.o
                                0xd12 (size before relaxing)
 .debug_str     0x000088b6      0x20a Src\syscalls.o
                                0x86c (size before relaxing)
 .debug_str     0x00008ac0       0x45 Src\system_stm32f7xx.o
                                0x525 (size before relaxing)
 .debug_str     0x00008b05       0x2e Src\usart.o
                                0xf2a (size before relaxing)
 .debug_str     0x00008b33      0x206 Src\user\action_scheduler.o
                               0x2da3 (size before relaxing)
 .debug_str     0x00008d39      0x3fe Src\user\can_receiver.o
                               0x1488 (size before relaxing)
 .debug_str     0x00009137      0x26d Src\user\can_transceiver_driver.o
                               0x1427 (size before relaxing)
 .debug_str     0x000093a4      0x254 Src\user\config.o
                               0x1442 (size before relaxing)
 .debug_str     0x000095f8      0x171 Src\user\data_saver.o
                               0x1601 (size before relaxing)
 .debug_str     0x00009769       0x6f Src\user\do_driver.o
                                0x491 (size before relaxing)
 .debug_str     0x000097d8       0xdb Src\user\fifo_queue.o
                                0x7de (size before relaxing)
 .debug_str     0x000098b3      0x17f Src\user\fifo_queue_multiread.o
                                0xaad (size before relaxing)
 .debug_str     0x00009a32      0x132 Src\user\file_reading_buffer.o
                                0xde8 (size before relaxing)
 .debug_str     0x00009b64      0x12c Src\user\file_system_wrapper.o
                                0xdc5 (size before relaxing)
 .debug_str     0x00009c90      0x1c0 Src\user\file_writing_buffer.o
                                0xed7 (size before relaxing)
 .debug_str     0x00009e50      0x15f Src\user\fixed_point.o
                                0x36d (size before relaxing)
 .debug_str     0x00009faf       0x9c Src\user\led_driver.o
                                0x4d9 (size before relaxing)
 .debug_str     0x0000a04b       0xc1 Src\user\ms_timer_driver.o
                                0x4b1 (size before relaxing)
 .debug_str     0x0000a10c      0x119 Src\user\rtc_driver.o
                                0x8e3 (size before relaxing)
 .debug_str     0x0000a225      0x2d8 Src\user\string_operations.o
                                0x97d (size before relaxing)
 .debug_str     0x0000a4fd      0x373 Src\user\uart_driver.o
                               0x145b (size before relaxing)
 .debug_str     0x0000a870      0x1e2 Src\user\uart_receiver_start_length.o
                               0x1822 (size before relaxing)
 .debug_str     0x0000aa52      0x13c Src\user\uart_receiver_start_term.o
                               0x1815 (size before relaxing)
 .debug_str     0x0000ab8e      0x49a Src\user\ublox_m8_gps_driver.o
                               0x27f9 (size before relaxing)

.comment        0x00000000       0x7c
 .comment       0x00000000       0x7c Drivers\STM32F7xx_HAL_Driver\Src\stm32f7xx_hal.o
                                 0x7d (size before relaxing)
 .comment       0x0000007c       0x7d Drivers\STM32F7xx_HAL_Driver\Src\stm32f7xx_hal_can.o
 .comment       0x0000007c       0x7d Drivers\STM32F7xx_HAL_Driver\Src\stm32f7xx_hal_cortex.o
 .comment       0x0000007c       0x7d Drivers\STM32F7xx_HAL_Driver\Src\stm32f7xx_hal_dma.o
 .comment       0x0000007c       0x7d Drivers\STM32F7xx_HAL_Driver\Src\stm32f7xx_hal_gpio.o
 .comment       0x0000007c       0x7d Drivers\STM32F7xx_HAL_Driver\Src\stm32f7xx_hal_pwr.o
 .comment       0x0000007c       0x7d Drivers\STM32F7xx_HAL_Driver\Src\stm32f7xx_hal_pwr_ex.o
 .comment       0x0000007c       0x7d Drivers\STM32F7xx_HAL_Driver\Src\stm32f7xx_hal_rcc.o
 .comment       0x0000007c       0x7d Drivers\STM32F7xx_HAL_Driver\Src\stm32f7xx_hal_rcc_ex.o
 .comment       0x0000007c       0x7d Drivers\STM32F7xx_HAL_Driver\Src\stm32f7xx_hal_rtc.o
 .comment       0x0000007c       0x7d Drivers\STM32F7xx_HAL_Driver\Src\stm32f7xx_hal_rtc_ex.o
 .comment       0x0000007c       0x7d Drivers\STM32F7xx_HAL_Driver\Src\stm32f7xx_hal_sd.o
 .comment       0x0000007c       0x7d Drivers\STM32F7xx_HAL_Driver\Src\stm32f7xx_hal_uart.o
 .comment       0x0000007c       0x7d Drivers\STM32F7xx_HAL_Driver\Src\stm32f7xx_ll_sdmmc.o
 .comment       0x0000007c       0x7d Middlewares\Third_Party\FatFs\src\diskio.o
 .comment       0x0000007c       0x7d Middlewares\Third_Party\FatFs\src\ff.o
 .comment       0x0000007c       0x7d Middlewares\Third_Party\FatFs\src\ff_gen_drv.o
 .comment       0x0000007c       0x7d Middlewares\Third_Party\FatFs\src\option\ccsbcs.o
 .comment       0x0000007c       0x7d Src\bsp_driver_sd.o
 .comment       0x0000007c       0x7d Src\can.o
 .comment       0x0000007c       0x7d Src\dma.o
 .comment       0x0000007c       0x7d Src\fatfs.o
 .comment       0x0000007c       0x7d Src\gpio.o
 .comment       0x0000007c       0x7d Src\main.o
 .comment       0x0000007c       0x7d Src\rtc.o
 .comment       0x0000007c       0x7d Src\sd_diskio.o
 .comment       0x0000007c       0x7d Src\sdmmc.o
 .comment       0x0000007c       0x7d Src\stm32f7xx_hal_msp.o
 .comment       0x0000007c       0x7d Src\stm32f7xx_it.o
 .comment       0x0000007c       0x7d Src\syscalls.o
 .comment       0x0000007c       0x7d Src\system_stm32f7xx.o
 .comment       0x0000007c       0x7d Src\usart.o
 .comment       0x0000007c       0x7d Src\user\action_scheduler.o
 .comment       0x0000007c       0x7d Src\user\can_receiver.o
 .comment       0x0000007c       0x7d Src\user\can_transceiver_driver.o
 .comment       0x0000007c       0x7d Src\user\config.o
 .comment       0x0000007c       0x7d Src\user\data_saver.o
 .comment       0x0000007c       0x7d Src\user\do_driver.o
 .comment       0x0000007c       0x7d Src\user\fifo_queue.o
 .comment       0x0000007c       0x7d Src\user\fifo_queue_multiread.o
 .comment       0x0000007c       0x7d Src\user\file_reading_buffer.o
 .comment       0x0000007c       0x7d Src\user\file_system_wrapper.o
 .comment       0x0000007c       0x7d Src\user\file_writing_buffer.o
 .comment       0x0000007c       0x7d Src\user\fixed_point.o
 .comment       0x0000007c       0x7d Src\user\led_driver.o
 .comment       0x0000007c       0x7d Src\user\ms_timer_driver.o
 .comment       0x0000007c       0x7d Src\user\rtc_driver.o
 .comment       0x0000007c       0x7d Src\user\string_operations.o
 .comment       0x0000007c       0x7d Src\user\uart_driver.o
 .comment       0x0000007c       0x7d Src\user\uart_receiver_start_length.o
 .comment       0x0000007c       0x7d Src\user\uart_receiver_start_term.o
 .comment       0x0000007c       0x7d Src\user\ublox_m8_gps_driver.o

.debug_frame    0x00000000     0x728c
 .debug_frame   0x00000000      0x3f4 Drivers\STM32F7xx_HAL_Driver\Src\stm32f7xx_hal.o
 .debug_frame   0x000003f4      0x5a0 Drivers\STM32F7xx_HAL_Driver\Src\stm32f7xx_hal_can.o
 .debug_frame   0x00000994      0x498 Drivers\STM32F7xx_HAL_Driver\Src\stm32f7xx_hal_cortex.o
 .debug_frame   0x00000e2c      0x250 Drivers\STM32F7xx_HAL_Driver\Src\stm32f7xx_hal_dma.o
 .debug_frame   0x0000107c      0x14c Drivers\STM32F7xx_HAL_Driver\Src\stm32f7xx_hal_gpio.o
 .debug_frame   0x000011c8      0x254 Drivers\STM32F7xx_HAL_Driver\Src\stm32f7xx_hal_pwr.o
 .debug_frame   0x0000141c      0x1c8 Drivers\STM32F7xx_HAL_Driver\Src\stm32f7xx_hal_pwr_ex.o
 .debug_frame   0x000015e4      0x1fc Drivers\STM32F7xx_HAL_Driver\Src\stm32f7xx_hal_rcc.o
 .debug_frame   0x000017e0      0x118 Drivers\STM32F7xx_HAL_Driver\Src\stm32f7xx_hal_rcc_ex.o
 .debug_frame   0x000018f8      0x308 Drivers\STM32F7xx_HAL_Driver\Src\stm32f7xx_hal_rtc.o
 .debug_frame   0x00001c00      0x59c Drivers\STM32F7xx_HAL_Driver\Src\stm32f7xx_hal_rtc_ex.o
 .debug_frame   0x0000219c      0x65c Drivers\STM32F7xx_HAL_Driver\Src\stm32f7xx_hal_sd.o
 .debug_frame   0x000027f8      0x8f4 Drivers\STM32F7xx_HAL_Driver\Src\stm32f7xx_hal_uart.o
 .debug_frame   0x000030ec      0x690 Drivers\STM32F7xx_HAL_Driver\Src\stm32f7xx_ll_sdmmc.o
 .debug_frame   0x0000377c       0xec Middlewares\Third_Party\FatFs\src\diskio.o
 .debug_frame   0x00003868      0xa0c Middlewares\Third_Party\FatFs\src\ff.o
 .debug_frame   0x00004274       0xc8 Middlewares\Third_Party\FatFs\src\ff_gen_drv.o
 .debug_frame   0x0000433c       0x60 Middlewares\Third_Party\FatFs\src\option\ccsbcs.o
 .debug_frame   0x0000439c      0x23c Src\bsp_driver_sd.o
 .debug_frame   0x000045d8       0x74 Src\can.o
 .debug_frame   0x0000464c       0x34 Src\dma.o
 .debug_frame   0x00004680       0x4c Src\fatfs.o
 .debug_frame   0x000046cc       0x34 Src\gpio.o
 .debug_frame   0x00004700      0x104 Src\main.o
 .debug_frame   0x00004804       0x84 Src\rtc.o
 .debug_frame   0x00004888      0x14c Src\sd_diskio.o
 .debug_frame   0x000049d4       0x78 Src\sdmmc.o
 .debug_frame   0x00004a4c       0x38 Src\stm32f7xx_hal_msp.o
 .debug_frame   0x00004a84      0x22c Src\stm32f7xx_it.o
 .debug_frame   0x00004cb0      0x2d4 Src\syscalls.o
 .debug_frame   0x00004f84       0x58 Src\system_stm32f7xx.o
 .debug_frame   0x00004fdc       0x74 Src\usart.o
 .debug_frame   0x00005050      0x180 Src\user\action_scheduler.o
 .debug_frame   0x000051d0      0x140 Src\user\can_receiver.o
 .debug_frame   0x00005310      0x1f8 Src\user\can_transceiver_driver.o
 .debug_frame   0x00005508      0x150 Src\user\config.o
 .debug_frame   0x00005658       0xfc Src\user\data_saver.o
 .debug_frame   0x00005754       0xa0 Src\user\do_driver.o
 .debug_frame   0x000057f4      0x11c Src\user\fifo_queue.o
 .debug_frame   0x00005910      0x18c Src\user\fifo_queue_multiread.o
 .debug_frame   0x00005a9c      0x110 Src\user\file_reading_buffer.o
 .debug_frame   0x00005bac      0x138 Src\user\file_system_wrapper.o
 .debug_frame   0x00005ce4      0x1c8 Src\user\file_writing_buffer.o
 .debug_frame   0x00005eac      0x160 Src\user\fixed_point.o
 .debug_frame   0x0000600c       0xc4 Src\user\led_driver.o
 .debug_frame   0x000060d0       0xd0 Src\user\ms_timer_driver.o
 .debug_frame   0x000061a0      0x140 Src\user\rtc_driver.o
 .debug_frame   0x000062e0      0x250 Src\user\string_operations.o
 .debug_frame   0x00006530      0x370 Src\user\uart_driver.o
 .debug_frame   0x000068a0      0x13c Src\user\uart_receiver_start_length.o
 .debug_frame   0x000069dc      0x114 Src\user\uart_receiver_start_term.o
 .debug_frame   0x00006af0      0x3a8 Src\user\ublox_m8_gps_driver.o
 .debug_frame   0x00006e98       0x20 c:/program files (x86)/atollic/truestudio for stm32 9.2.0/armtools/bin/../lib/gcc/arm-atollic-eabi/6.3.1/../../../../arm-atollic-eabi/lib/armv7e-m/fpu/fpv5-d16\libc_nano.a(lib_a-errno.o)
 .debug_frame   0x00006eb8       0x2c c:/program files (x86)/atollic/truestudio for stm32 9.2.0/armtools/bin/../lib/gcc/arm-atollic-eabi/6.3.1/../../../../arm-atollic-eabi/lib/armv7e-m/fpu/fpv5-d16\libc_nano.a(lib_a-init.o)
 .debug_frame   0x00006ee4       0x28 c:/program files (x86)/atollic/truestudio for stm32 9.2.0/armtools/bin/../lib/gcc/arm-atollic-eabi/6.3.1/../../../../arm-atollic-eabi/lib/armv7e-m/fpu/fpv5-d16\libc_nano.a(lib_a-memcpy-stub.o)
 .debug_frame   0x00006f0c       0x20 c:/program files (x86)/atollic/truestudio for stm32 9.2.0/armtools/bin/../lib/gcc/arm-atollic-eabi/6.3.1/../../../../arm-atollic-eabi/lib/armv7e-m/fpu/fpv5-d16\libc_nano.a(lib_a-memset.o)
 .debug_frame   0x00006f2c       0x70 c:/program files (x86)/atollic/truestudio for stm32 9.2.0/armtools/bin/../lib/gcc/arm-atollic-eabi/6.3.1/../../../../arm-atollic-eabi/lib/armv7e-m/fpu/fpv5-d16\libc_nano.a(lib_a-sprintf.o)
 .debug_frame   0x00006f9c       0x90 c:/program files (x86)/atollic/truestudio for stm32 9.2.0/armtools/bin/../lib/gcc/arm-atollic-eabi/6.3.1/../../../../arm-atollic-eabi/lib/armv7e-m/fpu/fpv5-d16\libc_nano.a(lib_a-nano-svfprintf.o)
 .debug_frame   0x0000702c       0x60 c:/program files (x86)/atollic/truestudio for stm32 9.2.0/armtools/bin/../lib/gcc/arm-atollic-eabi/6.3.1/../../../../arm-atollic-eabi/lib/armv7e-m/fpu/fpv5-d16\libc_nano.a(lib_a-nano-vfprintf_i.o)
 .debug_frame   0x0000708c       0x28 c:/program files (x86)/atollic/truestudio for stm32 9.2.0/armtools/bin/../lib/gcc/arm-atollic-eabi/6.3.1/../../../../arm-atollic-eabi/lib/armv7e-m/fpu/fpv5-d16\libc_nano.a(lib_a-memmove.o)
 .debug_frame   0x000070b4       0x38 c:/program files (x86)/atollic/truestudio for stm32 9.2.0/armtools/bin/../lib/gcc/arm-atollic-eabi/6.3.1/../../../../arm-atollic-eabi/lib/armv7e-m/fpu/fpv5-d16\libc_nano.a(lib_a-nano-freer.o)
 .debug_frame   0x000070ec       0x2c c:/program files (x86)/atollic/truestudio for stm32 9.2.0/armtools/bin/../lib/gcc/arm-atollic-eabi/6.3.1/../../../../arm-atollic-eabi/lib/armv7e-m/fpu/fpv5-d16\libc_nano.a(lib_a-nano-mallocr.o)
 .debug_frame   0x00007118       0x3c c:/program files (x86)/atollic/truestudio for stm32 9.2.0/armtools/bin/../lib/gcc/arm-atollic-eabi/6.3.1/../../../../arm-atollic-eabi/lib/armv7e-m/fpu/fpv5-d16\libc_nano.a(lib_a-nano-reallocr.o)
 .debug_frame   0x00007154       0x2c c:/program files (x86)/atollic/truestudio for stm32 9.2.0/armtools/bin/../lib/gcc/arm-atollic-eabi/6.3.1/../../../../arm-atollic-eabi/lib/armv7e-m/fpu/fpv5-d16\libc_nano.a(lib_a-sbrkr.o)
 .debug_frame   0x00007180       0x30 c:/program files (x86)/atollic/truestudio for stm32 9.2.0/armtools/bin/../lib/gcc/arm-atollic-eabi/6.3.1/../../../../arm-atollic-eabi/lib/armv7e-m/fpu/fpv5-d16\libc_nano.a(lib_a-mlock.o)
 .debug_frame   0x000071b0       0x20 c:/program files (x86)/atollic/truestudio for stm32 9.2.0/armtools/bin/../lib/gcc/arm-atollic-eabi/6.3.1/../../../../arm-atollic-eabi/lib/armv7e-m/fpu/fpv5-d16\libc_nano.a(lib_a-nano-msizer.o)
 .debug_frame   0x000071d0       0x5c c:/program files (x86)/atollic/truestudio for stm32 9.2.0/armtools/bin/../lib/gcc/arm-atollic-eabi/6.3.1/../../../../arm-atollic-eabi/lib/armv7e-m/fpu/fpv5-d16\libc_nano.a(lib_a-reent.o)
 .debug_frame   0x0000722c       0x2c c:/program files (x86)/atollic/truestudio for stm32 9.2.0/armtools/bin/../lib/gcc/arm-atollic-eabi/6.3.1/armv7e-m/fpu/fpv5-d16\libgcc.a(_aeabi_uldivmod.o)
 .debug_frame   0x00007258       0x34 c:/program files (x86)/atollic/truestudio for stm32 9.2.0/armtools/bin/../lib/gcc/arm-atollic-eabi/6.3.1/armv7e-m/fpu/fpv5-d16\libgcc.a(_udivmoddi4.o)
